ARM GAS  C:\Users\bbus692\AppData\Local\Temp\ccE14sxe.s 			page 1


   1              		.syntax unified
   2              		.cpu cortex-m3
   3              		.fpu softvfp
   4              		.eabi_attribute 20, 1
   5              		.eabi_attribute 21, 1
   6              		.eabi_attribute 23, 3
   7              		.eabi_attribute 24, 1
   8              		.eabi_attribute 25, 1
   9              		.eabi_attribute 26, 1
  10              		.eabi_attribute 30, 1
  11              		.eabi_attribute 34, 1
  12              		.eabi_attribute 18, 4
  13              		.thumb
  14              		.syntax unified
  15              		.file	"decoders.c"
  16              		.text
  17              	.Ltext0:
  18              		.cfi_sections	.debug_frame
  19              		.section	.text.decTimerISR,"ax",%progbits
  20              		.align	2
  21              		.global	decTimerISR
  22              		.thumb
  23              		.thumb_func
  24              		.type	decTimerISR, %function
  25              	decTimerISR:
  26              	.LFB63:
  27              		.file 1 "decoders.c"
   1:decoders.c    **** /* ========================================
   2:decoders.c    ****  * decoders.c
   3:decoders.c    ****  * 
   4:decoders.c    ****  * count /3 per motor /19 per rev /4 dec resoulution /5 ms *204 mm wheel circumference
   5:decoders.c    ****  * 
   6:decoders.c    ****  * mojor problem is that this will be frequently updating the compare value to be used but the moto
   7:decoders.c    ****  * ========================================
   8:decoders.c    **** */
   9:decoders.c    **** 
  10:decoders.c    **** #include "decoders.h"
  11:decoders.c    **** 
  12:decoders.c    **** CY_ISR_PROTO(decTimerISR);
  13:decoders.c    **** 
  14:decoders.c    **** CY_ISR(decTimerISR) {
  28              		.loc 1 14 0
  29              		.cfi_startproc
  30              		@ args = 0, pretend = 0, frame = 0
  31              		@ frame_needed = 0, uses_anonymous_args = 0
  32 0000 10B5     		push	{r4, lr}
  33              		.cfi_def_cfa_offset 8
  34              		.cfi_offset 4, -8
  35              		.cfi_offset 14, -4
  15:decoders.c    ****     countL = QuadDec_L_GetCounter();
  36              		.loc 1 15 0
  37 0002 FFF7FEFF 		bl	QuadDec_L_GetCounter
  38              	.LVL0:
  39 0006 80B2     		uxth	r0, r0
  40 0008 0A4C     		ldr	r4, .L3
  41 000a 2080     		strh	r0, [r4]	@ movhi
  16:decoders.c    ****     countR = QuadDec_R_GetCounter();
ARM GAS  C:\Users\bbus692\AppData\Local\Temp\ccE14sxe.s 			page 2


  42              		.loc 1 16 0
  43 000c FFF7FEFF 		bl	QuadDec_R_GetCounter
  44              	.LVL1:
  45 0010 80B2     		uxth	r0, r0
  46 0012 094A     		ldr	r2, .L3+4
  47 0014 1080     		strh	r0, [r2]	@ movhi
  17:decoders.c    ****     
  18:decoders.c    ****     // some code lol
  19:decoders.c    ****     // haven't decided on good units yet
  20:decoders.c    ****     
  21:decoders.c    ****     speedL = countL;
  48              		.loc 1 21 0
  49 0016 2388     		ldrh	r3, [r4]
  50 0018 9BB2     		uxth	r3, r3
  51 001a 0849     		ldr	r1, .L3+8
  52 001c 0B80     		strh	r3, [r1]	@ movhi
  22:decoders.c    ****     speedR = countR;
  53              		.loc 1 22 0
  54 001e 1388     		ldrh	r3, [r2]
  55 0020 9BB2     		uxth	r3, r3
  56 0022 074A     		ldr	r2, .L3+12
  57 0024 1380     		strh	r3, [r2]	@ movhi
  23:decoders.c    ****     
  24:decoders.c    ****     QuadDec_L_SetCounter(0);
  58              		.loc 1 24 0
  59 0026 0020     		movs	r0, #0
  60 0028 FFF7FEFF 		bl	QuadDec_L_SetCounter
  61              	.LVL2:
  25:decoders.c    ****     QuadDec_R_SetCounter(0);
  62              		.loc 1 25 0
  63 002c 0020     		movs	r0, #0
  64 002e FFF7FEFF 		bl	QuadDec_R_SetCounter
  65              	.LVL3:
  66 0032 10BD     		pop	{r4, pc}
  67              	.L4:
  68              		.align	2
  69              	.L3:
  70 0034 00000000 		.word	countL
  71 0038 00000000 		.word	countR
  72 003c 00000000 		.word	speedL
  73 0040 00000000 		.word	speedR
  74              		.cfi_endproc
  75              	.LFE63:
  76              		.size	decTimerISR, .-decTimerISR
  77              		.section	.text.decoderInit,"ax",%progbits
  78              		.align	2
  79              		.global	decoderInit
  80              		.thumb
  81              		.thumb_func
  82              		.type	decoderInit, %function
  83              	decoderInit:
  84              	.LFB64:
  26:decoders.c    **** }
  27:decoders.c    **** 
  28:decoders.c    **** void decoderInit(){
  85              		.loc 1 28 0
  86              		.cfi_startproc
ARM GAS  C:\Users\bbus692\AppData\Local\Temp\ccE14sxe.s 			page 3


  87              		@ args = 0, pretend = 0, frame = 0
  88              		@ frame_needed = 0, uses_anonymous_args = 0
  89 0000 08B5     		push	{r3, lr}
  90              		.cfi_def_cfa_offset 8
  91              		.cfi_offset 3, -8
  92              		.cfi_offset 14, -4
  29:decoders.c    ****     compareValueL = 163;
  93              		.loc 1 29 0
  94 0002 A322     		movs	r2, #163
  95 0004 084B     		ldr	r3, .L7
  96 0006 1A70     		strb	r2, [r3]
  30:decoders.c    ****     compareValueR = 170;
  97              		.loc 1 30 0
  98 0008 AA22     		movs	r2, #170
  99 000a 084B     		ldr	r3, .L7+4
 100 000c 1A70     		strb	r2, [r3]
  31:decoders.c    ****     goalSpeed = 65;
 101              		.loc 1 31 0
 102 000e 4122     		movs	r2, #65
 103 0010 074B     		ldr	r3, .L7+8
 104 0012 1A70     		strb	r2, [r3]
  32:decoders.c    ****     
  33:decoders.c    ****     //Clock_Dec_Start(); not needed maybe???
  34:decoders.c    ****     // Dec_Timer_Clock_Start();
  35:decoders.c    ****     
  36:decoders.c    ****     Dec_Timer_Start(); // start the timer for the decoder polls
 105              		.loc 1 36 0
 106 0014 FFF7FEFF 		bl	Dec_Timer_Start
 107              	.LVL4:
  37:decoders.c    ****     Dec_Timer_ISR_StartEx(decTimerISR); // start the isr for the timer
 108              		.loc 1 37 0
 109 0018 0648     		ldr	r0, .L7+12
 110 001a FFF7FEFF 		bl	Dec_Timer_ISR_StartEx
 111              	.LVL5:
  38:decoders.c    ****     
  39:decoders.c    ****     QuadDec_L_Start();
 112              		.loc 1 39 0
 113 001e FFF7FEFF 		bl	QuadDec_L_Start
 114              	.LVL6:
  40:decoders.c    ****     QuadDec_R_Start();
 115              		.loc 1 40 0
 116 0022 FFF7FEFF 		bl	QuadDec_R_Start
 117              	.LVL7:
 118 0026 08BD     		pop	{r3, pc}
 119              	.L8:
 120              		.align	2
 121              	.L7:
 122 0028 00000000 		.word	compareValueL
 123 002c 00000000 		.word	compareValueR
 124 0030 00000000 		.word	goalSpeed
 125 0034 00000000 		.word	decTimerISR
 126              		.cfi_endproc
 127              	.LFE64:
 128              		.size	decoderInit, .-decoderInit
 129              		.section	.text.speedAdjust,"ax",%progbits
 130              		.align	2
 131              		.global	speedAdjust
ARM GAS  C:\Users\bbus692\AppData\Local\Temp\ccE14sxe.s 			page 4


 132              		.thumb
 133              		.thumb_func
 134              		.type	speedAdjust, %function
 135              	speedAdjust:
 136              	.LFB65:
  41:decoders.c    **** }
  42:decoders.c    **** 
  43:decoders.c    **** void speedAdjust() {
 137              		.loc 1 43 0
 138              		.cfi_startproc
 139              		@ args = 0, pretend = 0, frame = 0
 140              		@ frame_needed = 0, uses_anonymous_args = 0
 141              		@ link register save eliminated.
  44:decoders.c    ****     if (speedL > goalSpeed){ // if speed greater than goal
 142              		.loc 1 44 0
 143 0000 114B     		ldr	r3, .L14
 144 0002 1A78     		ldrb	r2, [r3]	@ zero_extendqisi2
 145 0004 114B     		ldr	r3, .L14+4
 146 0006 1B88     		ldrh	r3, [r3]
 147 0008 9BB2     		uxth	r3, r3
 148 000a 9A42     		cmp	r2, r3
 149 000c 05D2     		bcs	.L10
  45:decoders.c    ****         compareValueL = compareValueL - 1; // decrease compare value
 150              		.loc 1 45 0
 151 000e 1049     		ldr	r1, .L14+8
 152 0010 0B78     		ldrb	r3, [r1]	@ zero_extendqisi2
 153 0012 013B     		subs	r3, r3, #1
 154 0014 DBB2     		uxtb	r3, r3
 155 0016 0B70     		strb	r3, [r1]
 156 0018 04E0     		b	.L11
 157              	.L10:
  46:decoders.c    ****     } else {
  47:decoders.c    ****         compareValueL = compareValueL + 1; // otherwise increase it
 158              		.loc 1 47 0
 159 001a 0D49     		ldr	r1, .L14+8
 160 001c 0B78     		ldrb	r3, [r1]	@ zero_extendqisi2
 161 001e 0133     		adds	r3, r3, #1
 162 0020 DBB2     		uxtb	r3, r3
 163 0022 0B70     		strb	r3, [r1]
 164              	.L11:
  48:decoders.c    ****     }
  49:decoders.c    ****     
  50:decoders.c    ****     if (speedR > goalSpeed){
 165              		.loc 1 50 0
 166 0024 0B4B     		ldr	r3, .L14+12
 167 0026 1B88     		ldrh	r3, [r3]
 168 0028 9BB2     		uxth	r3, r3
 169 002a 9A42     		cmp	r2, r3
 170 002c 05D2     		bcs	.L12
  51:decoders.c    ****         compareValueR = compareValueR - 1;
 171              		.loc 1 51 0
 172 002e 0A4A     		ldr	r2, .L14+16
 173 0030 1378     		ldrb	r3, [r2]	@ zero_extendqisi2
 174 0032 013B     		subs	r3, r3, #1
 175 0034 DBB2     		uxtb	r3, r3
 176 0036 1370     		strb	r3, [r2]
 177 0038 7047     		bx	lr
ARM GAS  C:\Users\bbus692\AppData\Local\Temp\ccE14sxe.s 			page 5


 178              	.L12:
  52:decoders.c    ****     } else {
  53:decoders.c    ****         compareValueR = compareValueR + 1;
 179              		.loc 1 53 0
 180 003a 074A     		ldr	r2, .L14+16
 181 003c 1378     		ldrb	r3, [r2]	@ zero_extendqisi2
 182 003e 0133     		adds	r3, r3, #1
 183 0040 DBB2     		uxtb	r3, r3
 184 0042 1370     		strb	r3, [r2]
 185 0044 7047     		bx	lr
 186              	.L15:
 187 0046 00BF     		.align	2
 188              	.L14:
 189 0048 00000000 		.word	goalSpeed
 190 004c 00000000 		.word	speedL
 191 0050 00000000 		.word	compareValueL
 192 0054 00000000 		.word	speedR
 193 0058 00000000 		.word	compareValueR
 194              		.cfi_endproc
 195              	.LFE65:
 196              		.size	speedAdjust, .-speedAdjust
 197              		.comm	speedR,2,2
 198              		.comm	speedL,2,2
 199              		.comm	countR,2,2
 200              		.comm	countL,2,2
 201              		.comm	goalSpeed,1,1
 202              		.comm	compareValueR,1,1
 203              		.comm	compareValueL,1,1
 204              		.text
 205              	.Letext0:
 206              		.file 2 "c:\\program files (x86)\\cypress\\psoc creator\\4.2\\psoc creator\\import\\gnu\\arm\\5.4.
 207              		.file 3 "c:\\program files (x86)\\cypress\\psoc creator\\4.2\\psoc creator\\import\\gnu\\arm\\5.4.
 208              		.file 4 "Generated_Source\\PSoC5/cytypes.h"
 209              		.file 5 "Generated_Source\\PSoC5/core_cm3.h"
 210              		.file 6 "decoders.h"
 211              		.file 7 "Generated_Source\\PSoC5/QuadDec_L.h"
 212              		.file 8 "Generated_Source\\PSoC5/QuadDec_R.h"
 213              		.file 9 "Generated_Source\\PSoC5/Dec_Timer.h"
 214              		.file 10 "Generated_Source\\PSoC5/Dec_Timer_ISR.h"