ARM GAS  C:\Users\smas270\AppData\Local\Temp\ccAiCCyW.s 			page 1


   1              		.syntax unified
   2              		.cpu cortex-m3
   3              		.fpu softvfp
   4              		.eabi_attribute 20, 1
   5              		.eabi_attribute 21, 1
   6              		.eabi_attribute 23, 3
   7              		.eabi_attribute 24, 1
   8              		.eabi_attribute 25, 1
   9              		.eabi_attribute 26, 1
  10              		.eabi_attribute 30, 1
  11              		.eabi_attribute 34, 1
  12              		.eabi_attribute 18, 4
  13              		.thumb
  14              		.syntax unified
  15              		.file	"main.c"
  16              		.text
  17              	.Ltext0:
  18              		.cfi_sections	.debug_frame
  19              		.section	.text.isr_eoc_1,"ax",%progbits
  20              		.align	2
  21              		.global	isr_eoc_1
  22              		.thumb
  23              		.thumb_func
  24              		.type	isr_eoc_1, %function
  25              	isr_eoc_1:
  26              	.LFB67:
  27              		.file 1 "main.c"
   1:main.c        **** #include "project.h"
   2:main.c        **** #include "motors.c"
   3:main.c        **** 
   4:main.c        **** #define ON 1
   5:main.c        **** #define OFF 0
   6:main.c        **** 
   7:main.c        **** // FL, FR, CL, CR, BC = front left, front right, center left, center right, back center respectivel
   8:main.c        **** #define FL 0
   9:main.c        **** #define FR 1
  10:main.c        **** #define CL 2
  11:main.c        **** #define CR 3
  12:main.c        **** #define BC 4
  13:main.c        **** 
  14:main.c        **** // State values.
  15:main.c        **** #define FORWARD 0
  16:main.c        **** #define TURNING_LEFT 1
  17:main.c        **** #define TURNING_RIGHT 2
  18:main.c        **** #define CORRECTION 3
  19:main.c        **** 
  20:main.c        **** // Prototype declarations.
  21:main.c        **** CY_ISR_PROTO(isr_eoc_1);
  22:main.c        **** CY_ISR_PROTO(isr_eoc_2);
  23:main.c        **** CY_ISR_PROTO(isr_timer);
  24:main.c        **** 
  25:main.c        **** uint8 channel = 0;
  26:main.c        **** 
  27:main.c        **** uint16 ADCResult;
  28:main.c        **** uint16 milliVoltReading;
  29:main.c        **** uint16 count = 0;
  30:main.c        **** uint16 state = FORWARD;
ARM GAS  C:\Users\smas270\AppData\Local\Temp\ccAiCCyW.s 			page 2


  31:main.c        **** 
  32:main.c        **** uint8 sensor_state[5];
  33:main.c        **** 
  34:main.c        **** CY_ISR(isr_eoc_1){
  28              		.loc 1 34 0
  29              		.cfi_startproc
  30              		@ args = 0, pretend = 0, frame = 0
  31              		@ frame_needed = 0, uses_anonymous_args = 0
  32              		@ link register save eliminated.
  35:main.c        ****     // Change the ADC channel each time an eoc interrupt is generated.
  36:main.c        ****     if (channel == 4) {
  33              		.loc 1 36 0
  34 0000 054B     		ldr	r3, .L4
  35 0002 1B78     		ldrb	r3, [r3]	@ zero_extendqisi2
  36 0004 042B     		cmp	r3, #4
  37 0006 03D1     		bne	.L2
  37:main.c        ****         channel = 0;
  38              		.loc 1 37 0
  39 0008 0022     		movs	r2, #0
  40 000a 034B     		ldr	r3, .L4
  41 000c 1A70     		strb	r2, [r3]
  42 000e 7047     		bx	lr
  43              	.L2:
  38:main.c        ****     } else {
  39:main.c        ****         channel++;
  44              		.loc 1 39 0
  45 0010 0133     		adds	r3, r3, #1
  46 0012 014A     		ldr	r2, .L4
  47 0014 1370     		strb	r3, [r2]
  48 0016 7047     		bx	lr
  49              	.L5:
  50              		.align	2
  51              	.L4:
  52 0018 00000000 		.word	.LANCHOR0
  53              		.cfi_endproc
  54              	.LFE67:
  55              		.size	isr_eoc_1, .-isr_eoc_1
  56              		.section	.text.move_forward,"ax",%progbits
  57              		.align	2
  58              		.global	move_forward
  59              		.thumb
  60              		.thumb_func
  61              		.type	move_forward, %function
  62              	move_forward:
  63              	.LFB63:
  64              		.file 2 "motors.c"
   1:motors.c      **** /* ========================================
   2:motors.c      ****  *
   3:motors.c      ****  * Copyright YOUR COMPANY, THE YEAR
   4:motors.c      ****  * All Rights Reserved
   5:motors.c      ****  * UNPUBLISHED, LICENSED SOFTWARE.
   6:motors.c      ****  *
   7:motors.c      ****  * CONFIDENTIAL AND PROPRIETARY INFORMATION
   8:motors.c      ****  * WHICH IS THE PROPERTY OF your company.
   9:motors.c      ****  *
  10:motors.c      ****  * ========================================
  11:motors.c      **** */
ARM GAS  C:\Users\smas270\AppData\Local\Temp\ccAiCCyW.s 			page 3


  12:motors.c      **** 
  13:motors.c      **** /* STRAIGHT: 
  14:motors.c      ****  * MOVE forward
  15:motors.c      ****  *
  16:motors.c      ****  * CORRECTION:
  17:motors.c      ****  * WAIT UNTIL BC off THEN
  18:motors.c      ****  * MOVE forward
  19:motors.c      ****  * UNTIL FL OR FR off ->
  20:motors.c      ****  * IF FL off TURN left UNTIL BC off
  21:motors.c      ****  * IF FR off TURN right UNTIL BC off
  22:motors.c      ****  *
  23:motors.c      ****  * LEFT:
  24:motors.c      ****  * WAIT UNTIL FL off
  25:motors.c      ****  * TURN left UNTIL CL off
  26:motors.c      ****  * MOVE forward UNTIL BC off
  27:motors.c      ****  * TURN left UNTIL FL on -> off
  28:motors.c      ****  * MOVE forward
  29:motors.c      ****  *
  30:motors.c      ****  * RIGHT:
  31:motors.c      ****  * WAIT UNTIL FR off
  32:motors.c      ****  * TURN right UNTIL CR off
  33:motors.c      ****  * MOVE forward UNTIL BC off
  34:motors.c      ****  * TURN right UNTIL FR on -> off
  35:motors.c      ****  * MOVE forward
  36:motors.c      ****  */
  37:motors.c      **** 
  38:motors.c      **** void move_forward() {
  65              		.loc 2 38 0
  66              		.cfi_startproc
  67              		@ args = 0, pretend = 0, frame = 0
  68              		@ frame_needed = 0, uses_anonymous_args = 0
  69              		@ link register save eliminated.
  70 0000 7047     		bx	lr
  71              		.cfi_endproc
  72              	.LFE63:
  73              		.size	move_forward, .-move_forward
  74 0002 00BF     		.section	.text.correction,"ax",%progbits
  75              		.align	2
  76              		.global	correction
  77              		.thumb
  78              		.thumb_func
  79              		.type	correction, %function
  80              	correction:
  81              	.LFB64:
  39:motors.c      ****     
  40:motors.c      **** }
  41:motors.c      **** 
  42:motors.c      **** void correction() {
  82              		.loc 2 42 0
  83              		.cfi_startproc
  84              		@ args = 0, pretend = 0, frame = 0
  85              		@ frame_needed = 0, uses_anonymous_args = 0
  86              		@ link register save eliminated.
  87 0000 7047     		bx	lr
  88              		.cfi_endproc
  89              	.LFE64:
  90              		.size	correction, .-correction
ARM GAS  C:\Users\smas270\AppData\Local\Temp\ccAiCCyW.s 			page 4


  91 0002 00BF     		.section	.text.turn_left,"ax",%progbits
  92              		.align	2
  93              		.global	turn_left
  94              		.thumb
  95              		.thumb_func
  96              		.type	turn_left, %function
  97              	turn_left:
  98              	.LFB65:
  43:motors.c      **** 
  44:motors.c      **** }
  45:motors.c      **** 
  46:motors.c      **** void turn_left() {
  99              		.loc 2 46 0
 100              		.cfi_startproc
 101              		@ args = 0, pretend = 0, frame = 0
 102              		@ frame_needed = 0, uses_anonymous_args = 0
 103              		@ link register save eliminated.
 104 0000 7047     		bx	lr
 105              		.cfi_endproc
 106              	.LFE65:
 107              		.size	turn_left, .-turn_left
 108 0002 00BF     		.section	.text.turn_right,"ax",%progbits
 109              		.align	2
 110              		.global	turn_right
 111              		.thumb
 112              		.thumb_func
 113              		.type	turn_right, %function
 114              	turn_right:
 115              	.LFB66:
  47:motors.c      **** 
  48:motors.c      **** }
  49:motors.c      **** 
  50:motors.c      **** void turn_right() {
 116              		.loc 2 50 0
 117              		.cfi_startproc
 118              		@ args = 0, pretend = 0, frame = 0
 119              		@ frame_needed = 0, uses_anonymous_args = 0
 120              		@ link register save eliminated.
 121 0000 7047     		bx	lr
 122              		.cfi_endproc
 123              	.LFE66:
 124              		.size	turn_right, .-turn_right
 125 0002 00BF     		.section	.text.main,"ax",%progbits
 126              		.align	2
 127              		.global	main
 128              		.thumb
 129              		.thumb_func
 130              		.type	main, %function
 131              	main:
 132              	.LFB68:
  40:main.c        ****     }
  41:main.c        **** }
  42:main.c        **** 
  43:main.c        **** int main(void){
 133              		.loc 1 43 0
 134              		.cfi_startproc
 135              		@ Volatile: function does not return.
ARM GAS  C:\Users\smas270\AppData\Local\Temp\ccAiCCyW.s 			page 5


 136              		@ args = 0, pretend = 0, frame = 0
 137              		@ frame_needed = 0, uses_anonymous_args = 0
 138              		.loc 1 43 0
 139 0000 08B5     		push	{r3, lr}
 140              		.cfi_def_cfa_offset 8
 141              		.cfi_offset 3, -8
 142              		.cfi_offset 14, -4
  44:main.c        ****     
  45:main.c        ****     // Enable global interrupts as well as start and enable the isr.
  46:main.c        ****     CyGlobalIntEnable;
 143              		.loc 1 46 0
 144              		.syntax unified
 145              	@ 46 "main.c" 1
 146 0002 62B6     		CPSIE   i
 147              	@ 0 "" 2
  47:main.c        ****     isr_eoc_1_StartEx(isr_eoc_1);
 148              		.loc 1 47 0
 149              		.thumb
 150              		.syntax unified
 151 0004 5B48     		ldr	r0, .L43
 152 0006 FFF7FEFF 		bl	isr_eoc_1_StartEx
 153              	.LVL0:
  48:main.c        ****     //isr_eoc_1_Enable();
  49:main.c        ****     //isr_eoc_2_StartEx(isr_eoc_2);
  50:main.c        ****     //isr_eoc_2_Enable();
  51:main.c        ****     //isr_timer_StartEx(isr_timer);
  52:main.c        ****     //isr_timer_Enable();
  53:main.c        ****     
  54:main.c        ****     // Start the ADC and begin conversions (in free running mode so will continue to convert).
  55:main.c        ****     ADC_SAR_Seq_1_Start();
 154              		.loc 1 55 0
 155 000a FFF7FEFF 		bl	ADC_SAR_Seq_1_Start
 156              	.LVL1:
  56:main.c        ****     ADC_SAR_Seq_1_StartConvert();
 157              		.loc 1 56 0
 158 000e FFF7FEFF 		bl	ADC_SAR_Seq_1_StartConvert
 159              	.LVL2:
 160              	.L11:
  57:main.c        ****     //Timer_1_Start();
  58:main.c        ****         
  59:main.c        ****     while(1) {
  60:main.c        ****            
  61:main.c        ****         // If the conversion result is ready, put it into a variable and convert it into millivolts
  62:main.c        ****         ADC_SAR_Seq_1_IsEndConversion(ADC_SAR_Seq_1_WAIT_FOR_RESULT);
 161              		.loc 1 62 0
 162 0012 0020     		movs	r0, #0
 163 0014 FFF7FEFF 		bl	ADC_SAR_Seq_1_IsEndConversion
 164              	.LVL3:
  63:main.c        ****         ADCResult = ADC_SAR_Seq_1_GetResult16(channel);
 165              		.loc 1 63 0
 166 0018 574B     		ldr	r3, .L43+4
 167 001a 1878     		ldrb	r0, [r3]	@ zero_extendqisi2
 168 001c FFF7FEFF 		bl	ADC_SAR_Seq_1_GetResult16
 169              	.LVL4:
 170 0020 564B     		ldr	r3, .L43+8
 171 0022 1880     		strh	r0, [r3]	@ movhi
  64:main.c        ****         milliVoltReading = ADC_SAR_Seq_1_CountsTo_mVolts(ADCResult);
ARM GAS  C:\Users\smas270\AppData\Local\Temp\ccAiCCyW.s 			page 6


 172              		.loc 1 64 0
 173 0024 FFF7FEFF 		bl	ADC_SAR_Seq_1_CountsTo_mVolts
 174              	.LVL5:
 175 0028 80B2     		uxth	r0, r0
 176 002a 554B     		ldr	r3, .L43+12
 177 002c 1880     		strh	r0, [r3]	@ movhi
  65:main.c        ****         
  66:main.c        ****         // If the milliVolt reading is above the required threshold, perform the requested operatio
  67:main.c        ****         if (milliVoltReading >= 800) {
 178              		.loc 1 67 0
 179 002e B0F5487F 		cmp	r0, #800
 180 0032 1ED3     		bcc	.L12
  68:main.c        ****             // Change the position in the sensor_state array depending on the channel being read.
  69:main.c        ****             if (channel == 0) {
 181              		.loc 1 69 0
 182 0034 504B     		ldr	r3, .L43+4
 183 0036 1B78     		ldrb	r3, [r3]	@ zero_extendqisi2
 184 0038 1BB9     		cbnz	r3, .L13
  70:main.c        ****                 sensor_state[FL] = ON;
 185              		.loc 1 70 0
 186 003a 0122     		movs	r2, #1
 187 003c 514B     		ldr	r3, .L43+16
 188 003e 1A70     		strb	r2, [r3]
 189 0040 35E0     		b	.L14
 190              	.L13:
  71:main.c        ****             } else if (channel == 1) {
 191              		.loc 1 71 0
 192 0042 012B     		cmp	r3, #1
 193 0044 03D1     		bne	.L15
  72:main.c        ****                 sensor_state[FR] = ON;
 194              		.loc 1 72 0
 195 0046 0122     		movs	r2, #1
 196 0048 4E4B     		ldr	r3, .L43+16
 197 004a 5A70     		strb	r2, [r3, #1]
 198 004c 2FE0     		b	.L14
 199              	.L15:
  73:main.c        ****             } else if (channel == 2) {
 200              		.loc 1 73 0
 201 004e 022B     		cmp	r3, #2
 202 0050 03D1     		bne	.L16
  74:main.c        ****                 sensor_state[CL] = ON;
 203              		.loc 1 74 0
 204 0052 0122     		movs	r2, #1
 205 0054 4B4B     		ldr	r3, .L43+16
 206 0056 9A70     		strb	r2, [r3, #2]
 207 0058 29E0     		b	.L14
 208              	.L16:
  75:main.c        ****             } else if (channel == 3) {
 209              		.loc 1 75 0
 210 005a 032B     		cmp	r3, #3
 211 005c 03D1     		bne	.L17
  76:main.c        ****                 sensor_state[CR] = ON;
 212              		.loc 1 76 0
 213 005e 0122     		movs	r2, #1
 214 0060 484B     		ldr	r3, .L43+16
 215 0062 DA70     		strb	r2, [r3, #3]
 216 0064 23E0     		b	.L14
ARM GAS  C:\Users\smas270\AppData\Local\Temp\ccAiCCyW.s 			page 7


 217              	.L17:
  77:main.c        ****             } else if (channel == 4) {
 218              		.loc 1 77 0
 219 0066 042B     		cmp	r3, #4
 220 0068 21D1     		bne	.L14
  78:main.c        ****                 sensor_state[BC] = ON;
 221              		.loc 1 78 0
 222 006a 0122     		movs	r2, #1
 223 006c 454B     		ldr	r3, .L43+16
 224 006e 1A71     		strb	r2, [r3, #4]
 225 0070 1DE0     		b	.L14
 226              	.L12:
  79:main.c        ****             }
  80:main.c        ****         } else {
  81:main.c        ****             if (channel == 0) {
 227              		.loc 1 81 0
 228 0072 414B     		ldr	r3, .L43+4
 229 0074 1B78     		ldrb	r3, [r3]	@ zero_extendqisi2
 230 0076 1BB9     		cbnz	r3, .L18
  82:main.c        ****                 sensor_state[FL] = OFF;
 231              		.loc 1 82 0
 232 0078 0022     		movs	r2, #0
 233 007a 424B     		ldr	r3, .L43+16
 234 007c 1A70     		strb	r2, [r3]
 235 007e 16E0     		b	.L14
 236              	.L18:
  83:main.c        ****             } else if (channel == 1) {
 237              		.loc 1 83 0
 238 0080 012B     		cmp	r3, #1
 239 0082 03D1     		bne	.L19
  84:main.c        ****                 sensor_state[FR] = OFF;
 240              		.loc 1 84 0
 241 0084 0022     		movs	r2, #0
 242 0086 3F4B     		ldr	r3, .L43+16
 243 0088 5A70     		strb	r2, [r3, #1]
 244 008a 10E0     		b	.L14
 245              	.L19:
  85:main.c        ****             } else if (channel == 2) {
 246              		.loc 1 85 0
 247 008c 022B     		cmp	r3, #2
 248 008e 03D1     		bne	.L20
  86:main.c        ****                 sensor_state[CL] = OFF;
 249              		.loc 1 86 0
 250 0090 0022     		movs	r2, #0
 251 0092 3C4B     		ldr	r3, .L43+16
 252 0094 9A70     		strb	r2, [r3, #2]
 253 0096 0AE0     		b	.L14
 254              	.L20:
  87:main.c        ****             } else if (channel == 3) {
 255              		.loc 1 87 0
 256 0098 032B     		cmp	r3, #3
 257 009a 03D1     		bne	.L21
  88:main.c        ****                 sensor_state[CR] = OFF;
 258              		.loc 1 88 0
 259 009c 0022     		movs	r2, #0
 260 009e 394B     		ldr	r3, .L43+16
 261 00a0 DA70     		strb	r2, [r3, #3]
ARM GAS  C:\Users\smas270\AppData\Local\Temp\ccAiCCyW.s 			page 8


 262 00a2 04E0     		b	.L14
 263              	.L21:
  89:main.c        ****             } else if (channel == 4) {
 264              		.loc 1 89 0
 265 00a4 042B     		cmp	r3, #4
 266 00a6 02D1     		bne	.L14
  90:main.c        ****                 sensor_state[BC] = OFF;
 267              		.loc 1 90 0
 268 00a8 0022     		movs	r2, #0
 269 00aa 364B     		ldr	r3, .L43+16
 270 00ac 1A71     		strb	r2, [r3, #4]
 271              	.L14:
  91:main.c        ****             }
  92:main.c        ****         }
  93:main.c        ****         
  94:main.c        ****         /* STRAIGHT: 
  95:main.c        ****          * MOVE forward
  96:main.c        ****          *
  97:main.c        ****          * CORRECTION:
  98:main.c        ****          * WAIT UNTIL BC off
  99:main.c        ****          * MOVE forward
 100:main.c        ****          * UNTIL FL OR FR off ->
 101:main.c        ****          * IF FL off TURN left UNTIL BC off
 102:main.c        ****          * IF FR off TURN right UNTIL BC off
 103:main.c        ****          *
 104:main.c        ****          * LEFT:
 105:main.c        ****          * WAIT UNTIL FL off
 106:main.c        ****          * TURN left UNTIL CL off
 107:main.c        ****          * MOVE forward UNTIL BC off
 108:main.c        ****          * TURN left UNTIL FL on -> off
 109:main.c        ****          * MOVE forward
 110:main.c        ****          *
 111:main.c        ****          * RIGHT:
 112:main.c        ****          * WAIT UNTIL FR off
 113:main.c        ****          * TURN right UNTIL CR off
 114:main.c        ****          * MOVE forward UNTIL BC off
 115:main.c        ****          * TURN right UNTIL FR on -> off
 116:main.c        ****          * MOVE forward
 117:main.c        ****          */
 118:main.c        ****         
 119:main.c        ****         // Implementation of a state machine to control the robot.
 120:main.c        ****         if (state == FORWARD) {
 272              		.loc 1 120 0
 273 00ae 324B     		ldr	r3, .L43+4
 274 00b0 5B88     		ldrh	r3, [r3, #2]
 275 00b2 ABB9     		cbnz	r3, .L22
 121:main.c        ****             if (sensor_state[FL] == OFF) {
 276              		.loc 1 121 0
 277 00b4 334B     		ldr	r3, .L43+16
 278 00b6 1B78     		ldrb	r3, [r3]	@ zero_extendqisi2
 279 00b8 1BB9     		cbnz	r3, .L23
 122:main.c        ****                 state = TURNING_LEFT;
 280              		.loc 1 122 0
 281 00ba 0122     		movs	r2, #1
 282 00bc 2E4B     		ldr	r3, .L43+4
 283 00be 5A80     		strh	r2, [r3, #2]	@ movhi
 284 00c0 A7E7     		b	.L11
ARM GAS  C:\Users\smas270\AppData\Local\Temp\ccAiCCyW.s 			page 9


 285              	.L23:
 123:main.c        ****             } else if (sensor_state[FR] == OFF) {
 286              		.loc 1 123 0
 287 00c2 304B     		ldr	r3, .L43+16
 288 00c4 5B78     		ldrb	r3, [r3, #1]	@ zero_extendqisi2
 289 00c6 1BB9     		cbnz	r3, .L25
 124:main.c        ****                 state = TURNING_RIGHT;
 290              		.loc 1 124 0
 291 00c8 0222     		movs	r2, #2
 292 00ca 2B4B     		ldr	r3, .L43+4
 293 00cc 5A80     		strh	r2, [r3, #2]	@ movhi
 294 00ce A0E7     		b	.L11
 295              	.L25:
 125:main.c        ****             } else if (sensor_state[BC] == OFF) {
 296              		.loc 1 125 0
 297 00d0 2C4B     		ldr	r3, .L43+16
 298 00d2 1B79     		ldrb	r3, [r3, #4]	@ zero_extendqisi2
 299 00d4 002B     		cmp	r3, #0
 300 00d6 9CD1     		bne	.L11
 126:main.c        ****                 state = CORRECTION;
 301              		.loc 1 126 0
 302 00d8 0322     		movs	r2, #3
 303 00da 274B     		ldr	r3, .L43+4
 304 00dc 5A80     		strh	r2, [r3, #2]	@ movhi
 305 00de 98E7     		b	.L11
 306              	.L22:
 127:main.c        ****             }
 128:main.c        ****             move_forward();
 129:main.c        ****         } else if (state == TURNING_LEFT) {
 307              		.loc 1 129 0
 308 00e0 012B     		cmp	r3, #1
 309 00e2 11D1     		bne	.L27
 310              	.L28:
 130:main.c        ****             while(sensor_state[CL] == ON) {
 311              		.loc 1 130 0
 312 00e4 274B     		ldr	r3, .L43+16
 313 00e6 9B78     		ldrb	r3, [r3, #2]	@ zero_extendqisi2
 314 00e8 012B     		cmp	r3, #1
 315 00ea FBD0     		beq	.L28
 316              	.L29:
 131:main.c        ****                 turn_left();
 132:main.c        ****             }
 133:main.c        ****             while(sensor_state[BC] == ON) {
 317              		.loc 1 133 0
 318 00ec 254B     		ldr	r3, .L43+16
 319 00ee 1B79     		ldrb	r3, [r3, #4]	@ zero_extendqisi2
 320 00f0 012B     		cmp	r3, #1
 321 00f2 FBD0     		beq	.L29
 322              	.L30:
 134:main.c        ****                 move_forward();
 135:main.c        ****             }
 136:main.c        ****             while(sensor_state[FL] == OFF) {
 323              		.loc 1 136 0
 324 00f4 234B     		ldr	r3, .L43+16
 325 00f6 1B78     		ldrb	r3, [r3]	@ zero_extendqisi2
 326 00f8 002B     		cmp	r3, #0
 327 00fa FBD0     		beq	.L30
ARM GAS  C:\Users\smas270\AppData\Local\Temp\ccAiCCyW.s 			page 10


 328              	.L31:
 137:main.c        ****                 turn_left();
 138:main.c        ****             }
 139:main.c        ****             while(sensor_state[FL] == ON) {
 329              		.loc 1 139 0
 330 00fc 012B     		cmp	r3, #1
 331 00fe FDD0     		beq	.L31
 140:main.c        ****                 turn_left();
 141:main.c        ****             }
 142:main.c        ****             state = FORWARD;
 332              		.loc 1 142 0
 333 0100 0022     		movs	r2, #0
 334 0102 1D4B     		ldr	r3, .L43+4
 335 0104 5A80     		strh	r2, [r3, #2]	@ movhi
 336 0106 84E7     		b	.L11
 337              	.L27:
 143:main.c        ****         } else if (state == TURNING_RIGHT) {
 338              		.loc 1 143 0
 339 0108 022B     		cmp	r3, #2
 340 010a 11D1     		bne	.L32
 341              	.L33:
 144:main.c        ****             while(sensor_state[CR] == ON) {
 342              		.loc 1 144 0
 343 010c 1D4B     		ldr	r3, .L43+16
 344 010e DB78     		ldrb	r3, [r3, #3]	@ zero_extendqisi2
 345 0110 012B     		cmp	r3, #1
 346 0112 FBD0     		beq	.L33
 347              	.L34:
 145:main.c        ****                 turn_right();
 146:main.c        ****             }
 147:main.c        ****             while(sensor_state[BC] == ON) {
 348              		.loc 1 147 0
 349 0114 1B4B     		ldr	r3, .L43+16
 350 0116 1B79     		ldrb	r3, [r3, #4]	@ zero_extendqisi2
 351 0118 012B     		cmp	r3, #1
 352 011a FBD0     		beq	.L34
 353              	.L35:
 148:main.c        ****                 move_forward();
 149:main.c        ****             }
 150:main.c        ****             while(sensor_state[FR] == OFF) {
 354              		.loc 1 150 0
 355 011c 194B     		ldr	r3, .L43+16
 356 011e 5B78     		ldrb	r3, [r3, #1]	@ zero_extendqisi2
 357 0120 002B     		cmp	r3, #0
 358 0122 FBD0     		beq	.L35
 359              	.L36:
 151:main.c        ****                 turn_right();
 152:main.c        ****             }
 153:main.c        ****             while(sensor_state[FR] == ON) {
 360              		.loc 1 153 0
 361 0124 012B     		cmp	r3, #1
 362 0126 FDD0     		beq	.L36
 154:main.c        ****                 turn_right();
 155:main.c        ****             }
 156:main.c        ****             state = FORWARD;
 363              		.loc 1 156 0
 364 0128 0022     		movs	r2, #0
ARM GAS  C:\Users\smas270\AppData\Local\Temp\ccAiCCyW.s 			page 11


 365 012a 134B     		ldr	r3, .L43+4
 366 012c 5A80     		strh	r2, [r3, #2]	@ movhi
 367 012e 70E7     		b	.L11
 368              	.L32:
 157:main.c        ****         } else if (state == CORRECTION) {
 369              		.loc 1 157 0
 370 0130 032B     		cmp	r3, #3
 371 0132 7FF46EAF 		bne	.L11
 372              	.L38:
 158:main.c        ****             while(sensor_state[FL] == ON && sensor_state[FR] == ON) {
 373              		.loc 1 158 0
 374 0136 134B     		ldr	r3, .L43+16
 375 0138 1B78     		ldrb	r3, [r3]	@ zero_extendqisi2
 376 013a 012B     		cmp	r3, #1
 377 013c 03D1     		bne	.L37
 378              		.loc 1 158 0 is_stmt 0 discriminator 1
 379 013e 114A     		ldr	r2, .L43+16
 380 0140 5278     		ldrb	r2, [r2, #1]	@ zero_extendqisi2
 381 0142 012A     		cmp	r2, #1
 382 0144 F7D0     		beq	.L38
 383              	.L37:
 159:main.c        ****                 move_forward();
 160:main.c        ****             }
 161:main.c        ****             if (sensor_state[FL] == OFF) {
 384              		.loc 1 161 0 is_stmt 1
 385 0146 3BB9     		cbnz	r3, .L39
 386              	.L40:
 162:main.c        ****                 while(sensor_state[BC] == ON) {
 387              		.loc 1 162 0
 388 0148 0E4B     		ldr	r3, .L43+16
 389 014a 1B79     		ldrb	r3, [r3, #4]	@ zero_extendqisi2
 390 014c 012B     		cmp	r3, #1
 391 014e FBD0     		beq	.L40
 163:main.c        ****                     turn_left();
 164:main.c        ****                 }
 165:main.c        ****                 state = FORWARD;
 392              		.loc 1 165 0
 393 0150 0022     		movs	r2, #0
 394 0152 094B     		ldr	r3, .L43+4
 395 0154 5A80     		strh	r2, [r3, #2]	@ movhi
 396 0156 5CE7     		b	.L11
 397              	.L39:
 166:main.c        ****             } else if (sensor_state[FR] == OFF) {
 398              		.loc 1 166 0
 399 0158 0A4B     		ldr	r3, .L43+16
 400 015a 5B78     		ldrb	r3, [r3, #1]	@ zero_extendqisi2
 401 015c 002B     		cmp	r3, #0
 402 015e 7FF458AF 		bne	.L11
 403              	.L41:
 167:main.c        ****                 while(sensor_state[BC] == ON) {
 404              		.loc 1 167 0
 405 0162 084B     		ldr	r3, .L43+16
 406 0164 1B79     		ldrb	r3, [r3, #4]	@ zero_extendqisi2
 407 0166 012B     		cmp	r3, #1
 408 0168 FBD0     		beq	.L41
 168:main.c        ****                     turn_right();
 169:main.c        ****                 }
ARM GAS  C:\Users\smas270\AppData\Local\Temp\ccAiCCyW.s 			page 12


 170:main.c        ****                 state = FORWARD;
 409              		.loc 1 170 0
 410 016a 0022     		movs	r2, #0
 411 016c 024B     		ldr	r3, .L43+4
 412 016e 5A80     		strh	r2, [r3, #2]	@ movhi
 413 0170 4FE7     		b	.L11
 414              	.L44:
 415 0172 00BF     		.align	2
 416              	.L43:
 417 0174 00000000 		.word	isr_eoc_1
 418 0178 00000000 		.word	.LANCHOR0
 419 017c 00000000 		.word	ADCResult
 420 0180 00000000 		.word	milliVoltReading
 421 0184 00000000 		.word	sensor_state
 422              		.cfi_endproc
 423              	.LFE68:
 424              		.size	main, .-main
 425              		.comm	sensor_state,5,4
 426              		.global	state
 427              		.global	count
 428              		.comm	milliVoltReading,2,2
 429              		.comm	ADCResult,2,2
 430              		.global	channel
 431              		.bss
 432              		.align	1
 433              		.set	.LANCHOR0,. + 0
 434              		.type	channel, %object
 435              		.size	channel, 1
 436              	channel:
 437 0000 00       		.space	1
 438 0001 00       		.space	1
 439              		.type	state, %object
 440              		.size	state, 2
 441              	state:
 442 0002 0000     		.space	2
 443              		.type	count, %object
 444              		.size	count, 2
 445              	count:
 446 0004 0000     		.space	2
 447              		.text
 448              	.Letext0:
 449              		.file 3 "c:\\program files (x86)\\cypress\\psoc creator\\4.2\\psoc creator\\import\\gnu\\arm\\5.4.
 450              		.file 4 "c:\\program files (x86)\\cypress\\psoc creator\\4.2\\psoc creator\\import\\gnu\\arm\\5.4.
 451              		.file 5 "Generated_Source\\PSoC5/cytypes.h"
 452              		.file 6 "Generated_Source\\PSoC5/core_cm3.h"
 453              		.file 7 "Generated_Source\\PSoC5/isr_eoc_1.h"
 454              		.file 8 "Generated_Source\\PSoC5/ADC_SAR_Seq_1.h"