ARM GAS  C:\Users\bbus692\AppData\Local\Temp\cct7QVVe.s 			page 1


   1              		.syntax unified
   2              		.cpu cortex-m3
   3              		.fpu softvfp
   4              		.eabi_attribute 20, 1
   5              		.eabi_attribute 21, 1
   6              		.eabi_attribute 23, 3
   7              		.eabi_attribute 24, 1
   8              		.eabi_attribute 25, 1
   9              		.eabi_attribute 26, 1
  10              		.eabi_attribute 30, 6
  11              		.eabi_attribute 34, 1
  12              		.eabi_attribute 18, 4
  13              		.thumb
  14              		.syntax unified
  15              		.file	"motors.c"
  16              		.text
  17              	.Ltext0:
  18              		.cfi_sections	.debug_frame
  19              		.section	.text.move_forward,"ax",%progbits
  20              		.align	2
  21              		.global	move_forward
  22              		.thumb
  23              		.thumb_func
  24              		.type	move_forward, %function
  25              	move_forward:
  26              	.LFB63:
  27              		.file 1 "motors.c"
   1:motors.c      **** /* ========================================
   2:motors.c      ****  * motors.c
   3:motors.c      ****  * ========================================
   4:motors.c      **** */
   5:motors.c      **** 
   6:motors.c      **** #include "project.h"
   7:motors.c      **** #include "motors.h"
   8:motors.c      **** 
   9:motors.c      **** /* STRAIGHT: 
  10:motors.c      ****  * MOVE forward
  11:motors.c      ****  *
  12:motors.c      ****  * CORRECTION:
  13:motors.c      ****  * WAIT UNTIL BC off THEN
  14:motors.c      ****  * MOVE forward
  15:motors.c      ****  * UNTIL FL OR FR off ->
  16:motors.c      ****  * IF FL off TURN left UNTIL BC off
  17:motors.c      ****  * IF FR off TURN right UNTIL BC off
  18:motors.c      ****  *
  19:motors.c      ****  * LEFT:
  20:motors.c      ****  * WAIT UNTIL FL off
  21:motors.c      ****  * TURN left UNTIL CL off
  22:motors.c      ****  * MOVE forward UNTIL BC off
  23:motors.c      ****  * TURN left UNTIL FL on -> off
  24:motors.c      ****  * MOVE forward
  25:motors.c      ****  *
  26:motors.c      ****  * RIGHT:
  27:motors.c      ****  * WAIT UNTIL FR off
  28:motors.c      ****  * TURN right UNTIL CR off
  29:motors.c      ****  * MOVE forward UNTIL BC off
  30:motors.c      ****  * TURN right UNTIL FR on -> off
ARM GAS  C:\Users\bbus692\AppData\Local\Temp\cct7QVVe.s 			page 2


  31:motors.c      ****  * MOVE forward
  32:motors.c      ****  */
  33:motors.c      **** 
  34:motors.c      **** void move_forward() {
  28              		.loc 1 34 0
  29              		.cfi_startproc
  30              		@ args = 0, pretend = 0, frame = 0
  31              		@ frame_needed = 1, uses_anonymous_args = 0
  32 0000 80B5     		push	{r7, lr}
  33              		.cfi_def_cfa_offset 8
  34              		.cfi_offset 7, -8
  35              		.cfi_offset 14, -4
  36 0002 00AF     		add	r7, sp, #0
  37              		.cfi_def_cfa_register 7
  35:motors.c      ****     
  36:motors.c      ****     // Forward movement.
  37:motors.c      ****     PWM_1_Start();
  38              		.loc 1 37 0
  39 0004 FFF7FEFF 		bl	PWM_1_Start
  38:motors.c      ****     PWM_1_WriteCompare(163);  
  40              		.loc 1 38 0
  41 0008 A320     		movs	r0, #163
  42 000a FFF7FEFF 		bl	PWM_1_WriteCompare
  39:motors.c      ****     PWM_2_Start();
  43              		.loc 1 39 0
  44 000e FFF7FEFF 		bl	PWM_2_Start
  40:motors.c      ****     PWM_2_WriteCompare(170);
  45              		.loc 1 40 0
  46 0012 AA20     		movs	r0, #170
  47 0014 FFF7FEFF 		bl	PWM_2_WriteCompare
  41:motors.c      ****     
  42:motors.c      **** }
  48              		.loc 1 42 0
  49 0018 00BF     		nop
  50 001a 80BD     		pop	{r7, pc}
  51              		.cfi_endproc
  52              	.LFE63:
  53              		.size	move_forward, .-move_forward
  54              		.section	.text.turn_left,"ax",%progbits
  55              		.align	2
  56              		.global	turn_left
  57              		.thumb
  58              		.thumb_func
  59              		.type	turn_left, %function
  60              	turn_left:
  61              	.LFB64:
  43:motors.c      **** 
  44:motors.c      **** void turn_left() {
  62              		.loc 1 44 0
  63              		.cfi_startproc
  64              		@ args = 0, pretend = 0, frame = 0
  65              		@ frame_needed = 1, uses_anonymous_args = 0
  66 0000 80B5     		push	{r7, lr}
  67              		.cfi_def_cfa_offset 8
  68              		.cfi_offset 7, -8
  69              		.cfi_offset 14, -4
  70 0002 00AF     		add	r7, sp, #0
ARM GAS  C:\Users\bbus692\AppData\Local\Temp\cct7QVVe.s 			page 3


  71              		.cfi_def_cfa_register 7
  45:motors.c      ****     
  46:motors.c      ****     // Left turning.
  47:motors.c      ****     PWM_1_WriteCompare(125);
  72              		.loc 1 47 0
  73 0004 7D20     		movs	r0, #125
  74 0006 FFF7FEFF 		bl	PWM_1_WriteCompare
  48:motors.c      ****     PWM_2_Start();
  75              		.loc 1 48 0
  76 000a FFF7FEFF 		bl	PWM_2_Start
  49:motors.c      ****     PWM_2_WriteCompare(170);
  77              		.loc 1 49 0
  78 000e AA20     		movs	r0, #170
  79 0010 FFF7FEFF 		bl	PWM_2_WriteCompare
  50:motors.c      **** 
  51:motors.c      **** }
  80              		.loc 1 51 0
  81 0014 00BF     		nop
  82 0016 80BD     		pop	{r7, pc}
  83              		.cfi_endproc
  84              	.LFE64:
  85              		.size	turn_left, .-turn_left
  86              		.section	.text.turn_right,"ax",%progbits
  87              		.align	2
  88              		.global	turn_right
  89              		.thumb
  90              		.thumb_func
  91              		.type	turn_right, %function
  92              	turn_right:
  93              	.LFB65:
  52:motors.c      **** 
  53:motors.c      **** void turn_right() {
  94              		.loc 1 53 0
  95              		.cfi_startproc
  96              		@ args = 0, pretend = 0, frame = 0
  97              		@ frame_needed = 1, uses_anonymous_args = 0
  98 0000 80B5     		push	{r7, lr}
  99              		.cfi_def_cfa_offset 8
 100              		.cfi_offset 7, -8
 101              		.cfi_offset 14, -4
 102 0002 00AF     		add	r7, sp, #0
 103              		.cfi_def_cfa_register 7
  54:motors.c      ****     
  55:motors.c      ****     // Right turning.
  56:motors.c      ****     PWM_2_WriteCompare(125);
 104              		.loc 1 56 0
 105 0004 7D20     		movs	r0, #125
 106 0006 FFF7FEFF 		bl	PWM_2_WriteCompare
  57:motors.c      ****     PWM_1_Start();
 107              		.loc 1 57 0
 108 000a FFF7FEFF 		bl	PWM_1_Start
  58:motors.c      ****     PWM_1_WriteCompare(163);
 109              		.loc 1 58 0
 110 000e A320     		movs	r0, #163
 111 0010 FFF7FEFF 		bl	PWM_1_WriteCompare
  59:motors.c      ****     
  60:motors.c      **** }    
ARM GAS  C:\Users\bbus692\AppData\Local\Temp\cct7QVVe.s 			page 4


 112              		.loc 1 60 0
 113 0014 00BF     		nop
 114 0016 80BD     		pop	{r7, pc}
 115              		.cfi_endproc
 116              	.LFE65:
 117              		.size	turn_right, .-turn_right
 118              		.section	.text.turn_left_sharp,"ax",%progbits
 119              		.align	2
 120              		.global	turn_left_sharp
 121              		.thumb
 122              		.thumb_func
 123              		.type	turn_left_sharp, %function
 124              	turn_left_sharp:
 125              	.LFB66:
  61:motors.c      **** 
  62:motors.c      **** void turn_left_sharp() {
 126              		.loc 1 62 0
 127              		.cfi_startproc
 128              		@ args = 0, pretend = 0, frame = 0
 129              		@ frame_needed = 1, uses_anonymous_args = 0
 130 0000 80B5     		push	{r7, lr}
 131              		.cfi_def_cfa_offset 8
 132              		.cfi_offset 7, -8
 133              		.cfi_offset 14, -4
 134 0002 00AF     		add	r7, sp, #0
 135              		.cfi_def_cfa_register 7
  63:motors.c      ****     
  64:motors.c      ****     // Left turning.
  65:motors.c      ****     PWM_1_WriteCompare(75);
 136              		.loc 1 65 0
 137 0004 4B20     		movs	r0, #75
 138 0006 FFF7FEFF 		bl	PWM_1_WriteCompare
  66:motors.c      ****     PWM_2_Start();
 139              		.loc 1 66 0
 140 000a FFF7FEFF 		bl	PWM_2_Start
  67:motors.c      ****     PWM_2_WriteCompare(170);
 141              		.loc 1 67 0
 142 000e AA20     		movs	r0, #170
 143 0010 FFF7FEFF 		bl	PWM_2_WriteCompare
  68:motors.c      ****     
  69:motors.c      **** }
 144              		.loc 1 69 0
 145 0014 00BF     		nop
 146 0016 80BD     		pop	{r7, pc}
 147              		.cfi_endproc
 148              	.LFE66:
 149              		.size	turn_left_sharp, .-turn_left_sharp
 150              		.section	.text.turn_right_sharp,"ax",%progbits
 151              		.align	2
 152              		.global	turn_right_sharp
 153              		.thumb
 154              		.thumb_func
 155              		.type	turn_right_sharp, %function
 156              	turn_right_sharp:
 157              	.LFB67:
  70:motors.c      **** 
  71:motors.c      **** void turn_right_sharp() {
ARM GAS  C:\Users\bbus692\AppData\Local\Temp\cct7QVVe.s 			page 5


 158              		.loc 1 71 0
 159              		.cfi_startproc
 160              		@ args = 0, pretend = 0, frame = 0
 161              		@ frame_needed = 1, uses_anonymous_args = 0
 162 0000 80B5     		push	{r7, lr}
 163              		.cfi_def_cfa_offset 8
 164              		.cfi_offset 7, -8
 165              		.cfi_offset 14, -4
 166 0002 00AF     		add	r7, sp, #0
 167              		.cfi_def_cfa_register 7
  72:motors.c      ****     
  73:motors.c      ****     // Right turning.
  74:motors.c      ****     PWM_2_WriteCompare(75);
 168              		.loc 1 74 0
 169 0004 4B20     		movs	r0, #75
 170 0006 FFF7FEFF 		bl	PWM_2_WriteCompare
  75:motors.c      ****     PWM_1_Start();
 171              		.loc 1 75 0
 172 000a FFF7FEFF 		bl	PWM_1_Start
  76:motors.c      ****     PWM_1_WriteCompare(163);
 173              		.loc 1 76 0
 174 000e A320     		movs	r0, #163
 175 0010 FFF7FEFF 		bl	PWM_1_WriteCompare
  77:motors.c      ****     
  78:motors.c      **** }
 176              		.loc 1 78 0
 177 0014 00BF     		nop
 178 0016 80BD     		pop	{r7, pc}
 179              		.cfi_endproc
 180              	.LFE67:
 181              		.size	turn_right_sharp, .-turn_right_sharp
 182              		.section	.text.stop,"ax",%progbits
 183              		.align	2
 184              		.global	stop
 185              		.thumb
 186              		.thumb_func
 187              		.type	stop, %function
 188              	stop:
 189              	.LFB68:
  79:motors.c      **** 
  80:motors.c      **** void stop() {
 190              		.loc 1 80 0
 191              		.cfi_startproc
 192              		@ args = 0, pretend = 0, frame = 0
 193              		@ frame_needed = 1, uses_anonymous_args = 0
 194 0000 80B5     		push	{r7, lr}
 195              		.cfi_def_cfa_offset 8
 196              		.cfi_offset 7, -8
 197              		.cfi_offset 14, -4
 198 0002 00AF     		add	r7, sp, #0
 199              		.cfi_def_cfa_register 7
  81:motors.c      ****     
  82:motors.c      ****     // Stop both motors.
  83:motors.c      ****     PWM_1_WriteCompare(125);
 200              		.loc 1 83 0
 201 0004 7D20     		movs	r0, #125
 202 0006 FFF7FEFF 		bl	PWM_1_WriteCompare
ARM GAS  C:\Users\bbus692\AppData\Local\Temp\cct7QVVe.s 			page 6


  84:motors.c      ****     PWM_2_WriteCompare(125);
 203              		.loc 1 84 0
 204 000a 7D20     		movs	r0, #125
 205 000c FFF7FEFF 		bl	PWM_2_WriteCompare
  85:motors.c      ****     //CyDelay(100);
  86:motors.c      ****     
  87:motors.c      **** }
 206              		.loc 1 87 0
 207 0010 00BF     		nop
 208 0012 80BD     		pop	{r7, pc}
 209              		.cfi_endproc
 210              	.LFE68:
 211              		.size	stop, .-stop
 212              		.text
 213              	.Letext0:
 214              		.file 2 "c:\\program files (x86)\\cypress\\psoc creator\\4.2\\psoc creator\\import\\gnu\\arm\\5.4.
 215              		.file 3 "c:\\program files (x86)\\cypress\\psoc creator\\4.2\\psoc creator\\import\\gnu\\arm\\5.4.
 216              		.file 4 "Generated_Source\\PSoC5/core_cm3.h"