ARM GAS  C:\Users\bbus692\AppData\Local\Temp\ccNfhypp.s 			page 1


   1              		.syntax unified
   2              		.cpu cortex-m3
   3              		.fpu softvfp
   4              		.eabi_attribute 20, 1
   5              		.eabi_attribute 21, 1
   6              		.eabi_attribute 23, 3
   7              		.eabi_attribute 24, 1
   8              		.eabi_attribute 25, 1
   9              		.eabi_attribute 26, 1
  10              		.eabi_attribute 30, 1
  11              		.eabi_attribute 34, 1
  12              		.eabi_attribute 18, 4
  13              		.thumb
  14              		.syntax unified
  15              		.file	"pathfinding.c"
  16              		.text
  17              	.Ltext0:
  18              		.cfi_sections	.debug_frame
  19              		.section	.text.makeQueue,"ax",%progbits
  20              		.align	2
  21              		.global	makeQueue
  22              		.thumb
  23              		.thumb_func
  24              		.type	makeQueue, %function
  25              	makeQueue:
  26              	.LFB64:
  27              		.file 1 "pathfinding.c"
   1:pathfinding.c **** /* ========================================
   2:pathfinding.c ****  * motors.c
   3:pathfinding.c ****  * ========================================
   4:pathfinding.c **** */
   5:pathfinding.c **** 
   6:pathfinding.c **** #include "pathfinding.h"
   7:pathfinding.c **** 
   8:pathfinding.c **** struct Queue* makeQueue(unsigned size) {
  28              		.loc 1 8 0
  29              		.cfi_startproc
  30              		@ args = 0, pretend = 0, frame = 0
  31              		@ frame_needed = 0, uses_anonymous_args = 0
  32              	.LVL0:
  33 0000 38B5     		push	{r3, r4, r5, lr}
  34              		.cfi_def_cfa_offset 16
  35              		.cfi_offset 3, -16
  36              		.cfi_offset 4, -12
  37              		.cfi_offset 5, -8
  38              		.cfi_offset 14, -4
  39 0002 0546     		mov	r5, r0
   9:pathfinding.c **** 
  10:pathfinding.c ****     // We need to make a pointer to the queue so that we can pass it by reference from the function
  11:pathfinding.c ****     struct Queue* queue = (struct Queue*)malloc(sizeof(struct Queue));
  40              		.loc 1 11 0
  41 0004 1020     		movs	r0, #16
  42              	.LVL1:
  43 0006 FFF7FEFF 		bl	malloc
  44              	.LVL2:
  45 000a 0446     		mov	r4, r0
  46              	.LVL3:
ARM GAS  C:\Users\bbus692\AppData\Local\Temp\ccNfhypp.s 			page 2


  12:pathfinding.c ****     queue->capacity = size;
  47              		.loc 1 12 0
  48 000c 8560     		str	r5, [r0, #8]
  13:pathfinding.c ****     queue->start = 0; // Setting up the queue so that the start of the queue (next item) is always 
  49              		.loc 1 13 0
  50 000e 0023     		movs	r3, #0
  51 0010 0380     		strh	r3, [r0]	@ movhi
  14:pathfinding.c ****     queue->size = 0; // Queue is empty to begin with.
  52              		.loc 1 14 0
  53 0012 8380     		strh	r3, [r0, #4]	@ movhi
  15:pathfinding.c ****     queue->end = queue->capacity - 1;
  54              		.loc 1 15 0
  55 0014 6B1E     		subs	r3, r5, #1
  56 0016 4380     		strh	r3, [r0, #2]	@ movhi
  16:pathfinding.c ****     queue->array = (struct PriorityVertex *) malloc(queue->capacity * sizeof(struct PriorityVertex)
  57              		.loc 1 16 0
  58 0018 A800     		lsls	r0, r5, #2
  59              	.LVL4:
  60 001a FFF7FEFF 		bl	malloc
  61              	.LVL5:
  62 001e E060     		str	r0, [r4, #12]
  17:pathfinding.c **** 
  18:pathfinding.c ****     return queue;
  19:pathfinding.c **** }
  63              		.loc 1 19 0
  64 0020 2046     		mov	r0, r4
  65 0022 38BD     		pop	{r3, r4, r5, pc}
  66              		.cfi_endproc
  67              	.LFE64:
  68              		.size	makeQueue, .-makeQueue
  69              		.section	.text.init,"ax",%progbits
  70              		.align	2
  71              		.global	init
  72              		.thumb
  73              		.thumb_func
  74              		.type	init, %function
  75              	init:
  76              	.LFB65:
  20:pathfinding.c **** 
  21:pathfinding.c **** void init(struct Queue* queue, uint16_t size) {
  77              		.loc 1 21 0
  78              		.cfi_startproc
  79              		@ args = 0, pretend = 0, frame = 8
  80              		@ frame_needed = 0, uses_anonymous_args = 0
  81              		@ link register save eliminated.
  82              	.LVL6:
  83 0000 10B4     		push	{r4}
  84              		.cfi_def_cfa_offset 4
  85              		.cfi_offset 4, -4
  86 0002 83B0     		sub	sp, sp, #12
  87              		.cfi_def_cfa_offset 16
  88 0004 0446     		mov	r4, r0
  89              	.LVL7:
  90              	.LBB2:
  22:pathfinding.c **** 
  23:pathfinding.c ****     // Initialise all values to minus one so that we can tell if the queue is empty or not (there i
  24:pathfinding.c ****     for (uint16_t i = 0; i < size; i++) {
ARM GAS  C:\Users\bbus692\AppData\Local\Temp\ccNfhypp.s 			page 3


  91              		.loc 1 24 0
  92 0006 0023     		movs	r3, #0
  93 0008 08E0     		b	.L4
  94              	.LVL8:
  95              	.L5:
  96              	.LBB3:
  25:pathfinding.c ****         struct PriorityVertex defaultValue = { .value = -1, .priority = UINT16_MAX, };
  97              		.loc 1 25 0 discriminator 3
  98 000a 074A     		ldr	r2, .L7
  99 000c 1068     		ldr	r0, [r2]	@ unaligned
 100 000e 0190     		str	r0, [sp, #4]	@ unaligned
  26:pathfinding.c ****         queue->array[i] = defaultValue;
 101              		.loc 1 26 0 discriminator 3
 102 0010 E268     		ldr	r2, [r4, #12]
 103 0012 0198     		ldr	r0, [sp, #4]	@ unaligned
 104 0014 42F82300 		str	r0, [r2, r3, lsl #2]	@ unaligned
 105              	.LBE3:
  24:pathfinding.c ****         struct PriorityVertex defaultValue = { .value = -1, .priority = UINT16_MAX, };
 106              		.loc 1 24 0 discriminator 3
 107 0018 0133     		adds	r3, r3, #1
 108              	.LVL9:
 109 001a 9BB2     		uxth	r3, r3
 110              	.LVL10:
 111              	.L4:
  24:pathfinding.c ****         struct PriorityVertex defaultValue = { .value = -1, .priority = UINT16_MAX, };
 112              		.loc 1 24 0 is_stmt 0 discriminator 1
 113 001c 8B42     		cmp	r3, r1
 114 001e F4D3     		bcc	.L5
 115              	.LBE2:
  27:pathfinding.c ****     }
  28:pathfinding.c **** 
  29:pathfinding.c **** }
 116              		.loc 1 29 0 is_stmt 1
 117 0020 03B0     		add	sp, sp, #12
 118              		.cfi_def_cfa_offset 4
 119              		@ sp needed
 120 0022 10BC     		pop	{r4}
 121              		.cfi_restore 4
 122              		.cfi_def_cfa_offset 0
 123              	.LVL11:
 124 0024 7047     		bx	lr
 125              	.L8:
 126 0026 00BF     		.align	2
 127              	.L7:
 128 0028 00000000 		.word	.LANCHOR0
 129              		.cfi_endproc
 130              	.LFE65:
 131              		.size	init, .-init
 132              		.section	.text.push,"ax",%progbits
 133              		.align	2
 134              		.global	push
 135              		.thumb
 136              		.thumb_func
 137              		.type	push, %function
 138              	push:
 139              	.LFB66:
  30:pathfinding.c **** 
ARM GAS  C:\Users\bbus692\AppData\Local\Temp\ccNfhypp.s 			page 4


  31:pathfinding.c **** void push(struct Queue* queue, int16_t vertex, uint16_t priority) {
 140              		.loc 1 31 0
 141              		.cfi_startproc
 142              		@ args = 0, pretend = 0, frame = 8
 143              		@ frame_needed = 0, uses_anonymous_args = 0
 144              		@ link register save eliminated.
 145              	.LVL12:
 146 0000 30B4     		push	{r4, r5}
 147              		.cfi_def_cfa_offset 8
 148              		.cfi_offset 4, -8
 149              		.cfi_offset 5, -4
 150 0002 82B0     		sub	sp, sp, #8
 151              		.cfi_def_cfa_offset 16
 152 0004 0346     		mov	r3, r0
  32:pathfinding.c **** 
  33:pathfinding.c ****     // Move the end marker along one, if we reach capacity, go back to the beginning.
  34:pathfinding.c ****     queue->end = (queue->end + 1) % queue->capacity;
 153              		.loc 1 34 0
 154 0006 B0F90240 		ldrsh	r4, [r0, #2]
 155 000a 0134     		adds	r4, r4, #1
 156 000c 8568     		ldr	r5, [r0, #8]
 157 000e B4FBF5F0 		udiv	r0, r4, r5
 158              	.LVL13:
 159 0012 05FB1044 		mls	r4, r5, r0, r4
 160 0016 24B2     		sxth	r4, r4
 161 0018 5C80     		strh	r4, [r3, #2]	@ movhi
  35:pathfinding.c ****     struct PriorityVertex newVertex = { .value = vertex, .priority = priority };
 162              		.loc 1 35 0
 163 001a ADF80410 		strh	r1, [sp, #4]	@ movhi
 164 001e ADF80620 		strh	r2, [sp, #6]	@ movhi
  36:pathfinding.c ****     queue->array[queue->end] = newVertex;
 165              		.loc 1 36 0
 166 0022 DA68     		ldr	r2, [r3, #12]
 167              	.LVL14:
 168 0024 0198     		ldr	r0, [sp, #4]	@ unaligned
 169 0026 42F82400 		str	r0, [r2, r4, lsl #2]	@ unaligned
  37:pathfinding.c ****     queue->size = queue->size + 1;
 170              		.loc 1 37 0
 171 002a B3F90420 		ldrsh	r2, [r3, #4]
 172 002e 0132     		adds	r2, r2, #1
 173 0030 9A80     		strh	r2, [r3, #4]	@ movhi
  38:pathfinding.c **** 
  39:pathfinding.c **** }
 174              		.loc 1 39 0
 175 0032 02B0     		add	sp, sp, #8
 176              		.cfi_def_cfa_offset 8
 177              		@ sp needed
 178 0034 30BC     		pop	{r4, r5}
 179              		.cfi_restore 5
 180              		.cfi_restore 4
 181              		.cfi_def_cfa_offset 0
 182              	.LVL15:
 183 0036 7047     		bx	lr
 184              		.cfi_endproc
 185              	.LFE66:
 186              		.size	push, .-push
 187              		.section	.text.pop,"ax",%progbits
ARM GAS  C:\Users\bbus692\AppData\Local\Temp\ccNfhypp.s 			page 5


 188              		.align	2
 189              		.global	pop
 190              		.thumb
 191              		.thumb_func
 192              		.type	pop, %function
 193              	pop:
 194              	.LFB67:
  40:pathfinding.c **** 
  41:pathfinding.c **** int16_t pop(struct Queue* queue) {
 195              		.loc 1 41 0
 196              		.cfi_startproc
 197              		@ args = 0, pretend = 0, frame = 8
 198              		@ frame_needed = 0, uses_anonymous_args = 0
 199              		@ link register save eliminated.
 200              	.LVL16:
 201 0000 82B0     		sub	sp, sp, #8
 202              		.cfi_def_cfa_offset 8
 203 0002 0346     		mov	r3, r0
  42:pathfinding.c **** 
  43:pathfinding.c ****     // Get the vertex from the start of the queue.
  44:pathfinding.c ****     struct PriorityVertex vertex = queue->array[queue->start];
 204              		.loc 1 44 0
 205 0004 C268     		ldr	r2, [r0, #12]
 206 0006 B0F90010 		ldrsh	r1, [r0]
 207 000a 52F82100 		ldr	r0, [r2, r1, lsl #2]	@ unaligned
 208              	.LVL17:
 209 000e 0190     		str	r0, [sp, #4]	@ unaligned
  45:pathfinding.c ****     // Reset to empty value of -1.
  46:pathfinding.c ****     struct PriorityVertex defaultValue = { .value = -1, .priority = UINT16_MAX };
 210              		.loc 1 46 0
 211 0010 0B48     		ldr	r0, .L13
 212 0012 0068     		ldr	r0, [r0]	@ unaligned
 213 0014 0090     		str	r0, [sp]	@ unaligned
  47:pathfinding.c ****     queue->array[queue->start] = defaultValue;
 214              		.loc 1 47 0
 215 0016 0098     		ldr	r0, [sp]	@ unaligned
 216 0018 42F82100 		str	r0, [r2, r1, lsl #2]	@ unaligned
  48:pathfinding.c ****     // Move the start marker along one, if we reach capacity, go back to the beginning.
  49:pathfinding.c ****     queue->start = (queue->start + 1) % queue->capacity;
 217              		.loc 1 49 0
 218 001c B3F90020 		ldrsh	r2, [r3]
 219 0020 0132     		adds	r2, r2, #1
 220 0022 9868     		ldr	r0, [r3, #8]
 221 0024 B2FBF0F1 		udiv	r1, r2, r0
 222 0028 00FB1122 		mls	r2, r0, r1, r2
 223 002c 1A80     		strh	r2, [r3]	@ movhi
  50:pathfinding.c ****     queue->size = queue->size - 1;
 224              		.loc 1 50 0
 225 002e B3F90420 		ldrsh	r2, [r3, #4]
 226 0032 013A     		subs	r2, r2, #1
 227 0034 9A80     		strh	r2, [r3, #4]	@ movhi
  51:pathfinding.c ****     return vertex.value;
  52:pathfinding.c **** 
  53:pathfinding.c **** }
 228              		.loc 1 53 0
 229 0036 BDF90400 		ldrsh	r0, [sp, #4]
 230 003a 02B0     		add	sp, sp, #8
ARM GAS  C:\Users\bbus692\AppData\Local\Temp\ccNfhypp.s 			page 6


 231              		.cfi_def_cfa_offset 0
 232              		@ sp needed
 233 003c 7047     		bx	lr
 234              	.L14:
 235 003e 00BF     		.align	2
 236              	.L13:
 237 0040 00000000 		.word	.LANCHOR0
 238              		.cfi_endproc
 239              	.LFE67:
 240              		.size	pop, .-pop
 241              		.section	.text.delete,"ax",%progbits
 242              		.align	2
 243              		.global	delete
 244              		.thumb
 245              		.thumb_func
 246              		.type	delete, %function
 247              	delete:
 248              	.LFB68:
  54:pathfinding.c **** 
  55:pathfinding.c **** void delete(struct Queue* queue, uint16_t pos) {
 249              		.loc 1 55 0
 250              		.cfi_startproc
 251              		@ args = 0, pretend = 0, frame = 0
 252              		@ frame_needed = 0, uses_anonymous_args = 0
 253              		@ link register save eliminated.
 254              	.LVL18:
 255 0000 30B4     		push	{r4, r5}
 256              		.cfi_def_cfa_offset 8
 257              		.cfi_offset 4, -8
 258              		.cfi_offset 5, -4
 259              	.LVL19:
 260              	.LBB4:
  56:pathfinding.c **** 
  57:pathfinding.c ****     // Replace each entry in the array with the next entry until the end.
  58:pathfinding.c ****     for (uint16_t i = 0; i < queue->end - pos; i++) {
 261              		.loc 1 58 0
 262 0002 0023     		movs	r3, #0
 263 0004 08E0     		b	.L16
 264              	.LVL20:
 265              	.L17:
  59:pathfinding.c ****         queue->array[pos + i] = queue->array[pos + i + 1];
 266              		.loc 1 59 0 discriminator 3
 267 0006 C268     		ldr	r2, [r0, #12]
 268 0008 5C18     		adds	r4, r3, r1
 269 000a 651C     		adds	r5, r4, #1
 270 000c 52F82550 		ldr	r5, [r2, r5, lsl #2]	@ unaligned
 271 0010 42F82450 		str	r5, [r2, r4, lsl #2]	@ unaligned
  58:pathfinding.c ****         queue->array[pos + i] = queue->array[pos + i + 1];
 272              		.loc 1 58 0 discriminator 3
 273 0014 0133     		adds	r3, r3, #1
 274              	.LVL21:
 275 0016 9BB2     		uxth	r3, r3
 276              	.LVL22:
 277              	.L16:
  58:pathfinding.c ****         queue->array[pos + i] = queue->array[pos + i + 1];
 278              		.loc 1 58 0 is_stmt 0 discriminator 1
 279 0018 B0F90220 		ldrsh	r2, [r0, #2]
ARM GAS  C:\Users\bbus692\AppData\Local\Temp\ccNfhypp.s 			page 7


 280 001c 541A     		subs	r4, r2, r1
 281 001e A342     		cmp	r3, r4
 282 0020 F1DB     		blt	.L17
 283              	.LBE4:
  60:pathfinding.c ****     }
  61:pathfinding.c ****     // Move the end pointer over.
  62:pathfinding.c ****     queue->end--;
 284              		.loc 1 62 0 is_stmt 1
 285 0022 013A     		subs	r2, r2, #1
 286 0024 4280     		strh	r2, [r0, #2]	@ movhi
  63:pathfinding.c ****     queue->size--;
 287              		.loc 1 63 0
 288 0026 B0F90430 		ldrsh	r3, [r0, #4]
 289              	.LVL23:
 290 002a 013B     		subs	r3, r3, #1
 291 002c 8380     		strh	r3, [r0, #4]	@ movhi
  64:pathfinding.c **** 
  65:pathfinding.c **** }
 292              		.loc 1 65 0
 293 002e 30BC     		pop	{r4, r5}
 294              		.cfi_restore 5
 295              		.cfi_restore 4
 296              		.cfi_def_cfa_offset 0
 297 0030 7047     		bx	lr
 298              		.cfi_endproc
 299              	.LFE68:
 300              		.size	delete, .-delete
 301 0032 00BF     		.section	.text.queueContains,"ax",%progbits
 302              		.align	2
 303              		.global	queueContains
 304              		.thumb
 305              		.thumb_func
 306              		.type	queueContains, %function
 307              	queueContains:
 308              	.LFB69:
  66:pathfinding.c **** 
  67:pathfinding.c **** bool queueContains(struct Queue* queue, int16_t vertex) {
 309              		.loc 1 67 0
 310              		.cfi_startproc
 311              		@ args = 0, pretend = 0, frame = 0
 312              		@ frame_needed = 0, uses_anonymous_args = 0
 313              		@ link register save eliminated.
 314              	.LVL24:
 315 0000 10B4     		push	{r4}
 316              		.cfi_def_cfa_offset 4
 317              		.cfi_offset 4, -4
 318              	.LVL25:
 319              	.LBB5:
  68:pathfinding.c **** 
  69:pathfinding.c ****     // If the queue contains the vertex return true, else return false.
  70:pathfinding.c ****     for (uint16_t i = 0; i < queue->size; i++) {
 320              		.loc 1 70 0
 321 0002 0023     		movs	r3, #0
 322 0004 09E0     		b	.L20
 323              	.LVL26:
 324              	.L22:
  71:pathfinding.c ****         if (queue->array[queue->start + i].value == vertex) {
ARM GAS  C:\Users\bbus692\AppData\Local\Temp\ccNfhypp.s 			page 8


 325              		.loc 1 71 0
 326 0006 C468     		ldr	r4, [r0, #12]
 327 0008 B0F90020 		ldrsh	r2, [r0]
 328 000c 1A44     		add	r2, r2, r3
 329 000e 34F92220 		ldrsh	r2, [r4, r2, lsl #2]
 330 0012 8A42     		cmp	r2, r1
 331 0014 07D0     		beq	.L23
  70:pathfinding.c ****         if (queue->array[queue->start + i].value == vertex) {
 332              		.loc 1 70 0 discriminator 2
 333 0016 0133     		adds	r3, r3, #1
 334              	.LVL27:
 335 0018 9BB2     		uxth	r3, r3
 336              	.LVL28:
 337              	.L20:
  70:pathfinding.c ****         if (queue->array[queue->start + i].value == vertex) {
 338              		.loc 1 70 0 is_stmt 0 discriminator 1
 339 001a B0F90420 		ldrsh	r2, [r0, #4]
 340 001e 9342     		cmp	r3, r2
 341 0020 F1DB     		blt	.L22
 342              	.LBE5:
  72:pathfinding.c ****             return true;
  73:pathfinding.c ****         }
  74:pathfinding.c ****     }
  75:pathfinding.c ****     return false;
 343              		.loc 1 75 0 is_stmt 1
 344 0022 0020     		movs	r0, #0
 345              	.LVL29:
 346              	.LBB6:
 347 0024 00E0     		b	.L21
 348              	.LVL30:
 349              	.L23:
  72:pathfinding.c ****             return true;
 350              		.loc 1 72 0
 351 0026 0120     		movs	r0, #1
 352              	.LVL31:
 353              	.L21:
 354              	.LBE6:
  76:pathfinding.c **** }
 355              		.loc 1 76 0
 356 0028 10BC     		pop	{r4}
 357              		.cfi_restore 4
 358              		.cfi_def_cfa_offset 0
 359 002a 7047     		bx	lr
 360              		.cfi_endproc
 361              	.LFE69:
 362              		.size	queueContains, .-queueContains
 363              		.section	.text.heuristic,"ax",%progbits
 364              		.align	2
 365              		.global	heuristic
 366              		.thumb
 367              		.thumb_func
 368              		.type	heuristic, %function
 369              	heuristic:
 370              	.LFB70:
  77:pathfinding.c **** 
  78:pathfinding.c **** uint16_t heuristic(int16_t entry, uint16_t target, uint16_t xdim) {
 371              		.loc 1 78 0
ARM GAS  C:\Users\bbus692\AppData\Local\Temp\ccNfhypp.s 			page 9


 372              		.cfi_startproc
 373              		@ args = 0, pretend = 0, frame = 0
 374              		@ frame_needed = 0, uses_anonymous_args = 0
 375              		@ link register save eliminated.
 376              	.LVL32:
 377 0000 30B4     		push	{r4, r5}
 378              		.cfi_def_cfa_offset 8
 379              		.cfi_offset 4, -8
 380              		.cfi_offset 5, -4
  79:pathfinding.c **** 
  80:pathfinding.c ****     // Calculate square of horizontal using modulo.
  81:pathfinding.c ****     uint16_t horiz = (target % xdim - entry % xdim) * (target % xdim - entry % xdim);
 381              		.loc 1 81 0
 382 0002 B1FBF2F4 		udiv	r4, r1, r2
 383 0006 02FB1411 		mls	r1, r2, r4, r1
 384              	.LVL33:
 385 000a 89B2     		uxth	r1, r1
 386 000c 90FBF2F5 		sdiv	r5, r0, r2
 387 0010 02FB1503 		mls	r3, r2, r5, r0
 388 0014 CB1A     		subs	r3, r1, r3
 389 0016 9BB2     		uxth	r3, r3
 390 0018 03FB03F3 		mul	r3, r3, r3
 391 001c 9BB2     		uxth	r3, r3
 392              	.LVL34:
  82:pathfinding.c **** 
  83:pathfinding.c ****     // Calculate square of vertical using division (truncation).
  84:pathfinding.c ****     uint16_t vert = (target / xdim - entry / xdim) * (target / xdim - entry / xdim);
 393              		.loc 1 84 0
 394 001e A4B2     		uxth	r4, r4
 395 0020 621B     		subs	r2, r4, r5
 396              	.LVL35:
 397 0022 92B2     		uxth	r2, r2
 398 0024 02FB02F2 		mul	r2, r2, r2
 399 0028 92B2     		uxth	r2, r2
 400              	.LVL36:
  85:pathfinding.c **** 
  86:pathfinding.c ****     return (horiz + vert) / 10;
 401              		.loc 1 86 0
 402 002a 1344     		add	r3, r3, r2
 403              	.LVL37:
 404 002c 0448     		ldr	r0, .L27
 405              	.LVL38:
 406 002e 80FB0320 		smull	r2, r0, r0, r3
 407              	.LVL39:
 408 0032 DB17     		asrs	r3, r3, #31
 409 0034 C3EBA000 		rsb	r0, r3, r0, asr #2
  87:pathfinding.c **** 
  88:pathfinding.c **** }
 410              		.loc 1 88 0
 411 0038 80B2     		uxth	r0, r0
 412 003a 30BC     		pop	{r4, r5}
 413              		.cfi_restore 5
 414              		.cfi_restore 4
 415              		.cfi_def_cfa_offset 0
 416              	.LVL40:
 417 003c 7047     		bx	lr
 418              	.L28:
ARM GAS  C:\Users\bbus692\AppData\Local\Temp\ccNfhypp.s 			page 10


 419 003e 00BF     		.align	2
 420              	.L27:
 421 0040 67666666 		.word	1717986919
 422              		.cfi_endproc
 423              	.LFE70:
 424              		.size	heuristic, .-heuristic
 425              		.section	.text.removeVertex,"ax",%progbits
 426              		.align	2
 427              		.global	removeVertex
 428              		.thumb
 429              		.thumb_func
 430              		.type	removeVertex, %function
 431              	removeVertex:
 432              	.LFB71:
  89:pathfinding.c **** 
  90:pathfinding.c **** struct PriorityVertex removeVertex(struct Queue* queue) {
 433              		.loc 1 90 0
 434              		.cfi_startproc
 435              		@ args = 0, pretend = 0, frame = 8
 436              		@ frame_needed = 0, uses_anonymous_args = 0
 437              	.LVL41:
 438 0000 70B5     		push	{r4, r5, r6, lr}
 439              		.cfi_def_cfa_offset 16
 440              		.cfi_offset 4, -16
 441              		.cfi_offset 5, -12
 442              		.cfi_offset 6, -8
 443              		.cfi_offset 14, -4
 444 0002 82B0     		sub	sp, sp, #8
 445              		.cfi_def_cfa_offset 24
 446              	.LVL42:
 447              	.LBB7:
  91:pathfinding.c **** 
  92:pathfinding.c ****     // This function operates like pop but differs in that the priority queue is out of order.
  93:pathfinding.c ****     uint16_t maxPriority = UINT16_MAX;
  94:pathfinding.c ****     uint16_t pos;
  95:pathfinding.c ****     for (uint16_t i = 0; i < queue->size; i++) {
 448              		.loc 1 95 0
 449 0004 0023     		movs	r3, #0
 450              	.LBE7:
  93:pathfinding.c ****     uint16_t pos;
 451              		.loc 1 93 0
 452 0006 4FF6FF76 		movw	r6, #65535
 453              	.LBB8:
 454              		.loc 1 95 0
 455 000a 0CE0     		b	.L30
 456              	.LVL43:
 457              	.L32:
  96:pathfinding.c ****         // Although maxPriority is an indicator of what to prioritise, lower values should be visit
  97:pathfinding.c ****         if (queue->array[queue->start + i].priority < maxPriority) {
 458              		.loc 1 97 0
 459 000c C268     		ldr	r2, [r0, #12]
 460 000e B0F90040 		ldrsh	r4, [r0]
 461 0012 E518     		adds	r5, r4, r3
 462 0014 02EB8502 		add	r2, r2, r5, lsl #2
 463 0018 5288     		ldrh	r2, [r2, #2]
 464 001a 9642     		cmp	r6, r2
 465 001c 01D9     		bls	.L31
ARM GAS  C:\Users\bbus692\AppData\Local\Temp\ccNfhypp.s 			page 11


 466              	.LVL44:
  98:pathfinding.c ****             maxPriority = queue->array[queue->start + i].priority;
  99:pathfinding.c ****             pos = queue->start + i;
 467              		.loc 1 99 0
 468 001e A9B2     		uxth	r1, r5
 469              	.LVL45:
  98:pathfinding.c ****             maxPriority = queue->array[queue->start + i].priority;
 470              		.loc 1 98 0
 471 0020 1646     		mov	r6, r2
 472              	.LVL46:
 473              	.L31:
  95:pathfinding.c ****         // Although maxPriority is an indicator of what to prioritise, lower values should be visit
 474              		.loc 1 95 0 discriminator 2
 475 0022 0133     		adds	r3, r3, #1
 476              	.LVL47:
 477 0024 9BB2     		uxth	r3, r3
 478              	.LVL48:
 479              	.L30:
  95:pathfinding.c ****         // Although maxPriority is an indicator of what to prioritise, lower values should be visit
 480              		.loc 1 95 0 is_stmt 0 discriminator 1
 481 0026 B0F90420 		ldrsh	r2, [r0, #4]
 482 002a 9342     		cmp	r3, r2
 483 002c EEDB     		blt	.L32
 484              	.LBE8:
 100:pathfinding.c ****         }
 101:pathfinding.c ****     }
 102:pathfinding.c **** 
 103:pathfinding.c ****     struct PriorityVertex returnVertex = { .value = queue->array[pos].value, .priority = queue->arr
 485              		.loc 1 103 0 is_stmt 1
 486 002e C368     		ldr	r3, [r0, #12]
 487              	.LVL49:
 488 0030 03EB8102 		add	r2, r3, r1, lsl #2
 489 0034 33F92130 		ldrsh	r3, [r3, r1, lsl #2]
 490 0038 ADF80030 		strh	r3, [sp]	@ movhi
 491 003c 5388     		ldrh	r3, [r2, #2]
 492 003e ADF80230 		strh	r3, [sp, #2]	@ movhi
 104:pathfinding.c ****     // Call to delete subroutine.
 105:pathfinding.c ****     delete(queue, pos);
 493              		.loc 1 105 0
 494 0042 FFF7FEFF 		bl	delete
 495              	.LVL50:
 106:pathfinding.c ****     // Return the vertex.
 107:pathfinding.c ****     return returnVertex;
 496              		.loc 1 107 0
 497 0046 009B     		ldr	r3, [sp]
 498 0048 0020     		movs	r0, #0
 499 004a 9AB2     		uxth	r2, r3
 500 004c 62F30F00 		bfi	r0, r2, #0, #16
 501 0050 1B0C     		lsrs	r3, r3, #16
 502 0052 63F31F40 		bfi	r0, r3, #16, #16
 108:pathfinding.c **** 
 109:pathfinding.c **** }
 503              		.loc 1 109 0
 504 0056 02B0     		add	sp, sp, #8
 505              		.cfi_def_cfa_offset 16
 506              		@ sp needed
 507 0058 70BD     		pop	{r4, r5, r6, pc}
ARM GAS  C:\Users\bbus692\AppData\Local\Temp\ccNfhypp.s 			page 12


 508              		.cfi_endproc
 509              	.LFE71:
 510              		.size	removeVertex, .-removeVertex
 511 005a 00BF     		.section	.text.ASTAR,"ax",%progbits
 512              		.align	2
 513              		.global	ASTAR
 514              		.thumb
 515              		.thumb_func
 516              		.type	ASTAR, %function
 517              	ASTAR:
 518              	.LFB72:
 110:pathfinding.c **** 
 111:pathfinding.c **** // Implementation of the A* algorithm.
 112:pathfinding.c **** uint16_t *ASTAR(uint16_t source, uint16_t target, int16_t adjlist[][4], uint16_t xdim, uint16_t ydi
 519              		.loc 1 112 0
 520              		.cfi_startproc
 521              		@ args = 8, pretend = 0, frame = 40
 522              		@ frame_needed = 1, uses_anonymous_args = 0
 523              	.LVL51:
 524 0000 2DE9F04F 		push	{r4, r5, r6, r7, r8, r9, r10, fp, lr}
 525              		.cfi_def_cfa_offset 36
 526              		.cfi_offset 4, -36
 527              		.cfi_offset 5, -32
 528              		.cfi_offset 6, -28
 529              		.cfi_offset 7, -24
 530              		.cfi_offset 8, -20
 531              		.cfi_offset 9, -16
 532              		.cfi_offset 10, -12
 533              		.cfi_offset 11, -8
 534              		.cfi_offset 14, -4
 535 0004 8BB0     		sub	sp, sp, #44
 536              		.cfi_def_cfa_offset 80
 537 0006 00AF     		add	r7, sp, #0
 538              		.cfi_def_cfa_register 7
 539 0008 0646     		mov	r6, r0
 540 000a F860     		str	r0, [r7, #12]
 541 000c 8B46     		mov	fp, r1
 542 000e 9246     		mov	r10, r2
 543 0010 1A46     		mov	r2, r3
 544              	.LVL52:
 545 0012 3B61     		str	r3, [r7, #16]
 546              	.LVL53:
 113:pathfinding.c **** 
 114:pathfinding.c ****     // Dimension.
 115:pathfinding.c ****     uint16_t size = xdim * ydim;
 547              		.loc 1 115 0
 548 0014 B7F85030 		ldrh	r3, [r7, #80]
 549              	.LVL54:
 550 0018 03FB02F3 		mul	r3, r3, r2
 551 001c 9BB2     		uxth	r3, r3
 552 001e 1D46     		mov	r5, r3
 553 0020 BB60     		str	r3, [r7, #8]
 554              	.LVL55:
 116:pathfinding.c **** 
 117:pathfinding.c ****     // Set up the queue.
 118:pathfinding.c ****     struct Queue* queue = makeQueue(size);
 555              		.loc 1 118 0
ARM GAS  C:\Users\bbus692\AppData\Local\Temp\ccNfhypp.s 			page 13


 556 0022 1846     		mov	r0, r3
 557              	.LVL56:
 558 0024 FFF7FEFF 		bl	makeQueue
 559              	.LVL57:
 560 0028 0446     		mov	r4, r0
 561 002a F861     		str	r0, [r7, #28]
 562              	.LVL58:
 119:pathfinding.c ****     init(queue, size);
 563              		.loc 1 119 0
 564 002c 2946     		mov	r1, r5
 565 002e FFF7FEFF 		bl	init
 566              	.LVL59:
 120:pathfinding.c ****     push(queue, source, 0);
 567              		.loc 1 120 0
 568 0032 0022     		movs	r2, #0
 569 0034 31B2     		sxth	r1, r6
 570 0036 2046     		mov	r0, r4
 571 0038 FFF7FEFF 		bl	push
 572              	.LVL60:
 121:pathfinding.c **** 
 122:pathfinding.c ****     // Set up an array to track vertices and their distances (INT_MAX means a vertex has yet to be 
 123:pathfinding.c ****     struct Vertex vertices[size];
 573              		.loc 1 123 0
 574 003c 05EB4503 		add	r3, r5, r5, lsl #1
 575 0040 5B00     		lsls	r3, r3, #1
 576 0042 0833     		adds	r3, r3, #8
 577 0044 23F00703 		bic	r3, r3, #7
 578 0048 ADEB030D 		sub	sp, sp, r3
 579 004c E846     		mov	r8, sp
 580              	.LVL61:
 581              	.LBB9:
 124:pathfinding.c ****     for (uint16_t i = 0; i < size; i++) {
 582              		.loc 1 124 0
 583 004e 0023     		movs	r3, #0
 584 0050 0CE0     		b	.L35
 585              	.LVL62:
 586              	.L36:
 125:pathfinding.c **** 
 126:pathfinding.c ****         // We don't care about vertex colour for this implementation.
 127:pathfinding.c ****         vertices[i].pred = -1;
 587              		.loc 1 127 0 discriminator 3
 588 0052 5A00     		lsls	r2, r3, #1
 589 0054 D018     		adds	r0, r2, r3
 590 0056 08EB4004 		add	r4, r8, r0, lsl #1
 591 005a 4FF6FF71 		movw	r1, #65535
 592 005e 28F81010 		strh	r1, [r8, r0, lsl #1]	@ movhi
 128:pathfinding.c ****         vertices[i].distance = UINT16_MAX;
 593              		.loc 1 128 0 discriminator 3
 594 0062 6180     		strh	r1, [r4, #2]	@ movhi
 129:pathfinding.c ****         vertices[i].visited = false;
 595              		.loc 1 129 0 discriminator 3
 596 0064 0021     		movs	r1, #0
 597 0066 2171     		strb	r1, [r4, #4]
 124:pathfinding.c **** 
 598              		.loc 1 124 0 discriminator 3
 599 0068 0133     		adds	r3, r3, #1
 600              	.LVL63:
ARM GAS  C:\Users\bbus692\AppData\Local\Temp\ccNfhypp.s 			page 14


 601 006a 9BB2     		uxth	r3, r3
 602              	.LVL64:
 603              	.L35:
 124:pathfinding.c **** 
 604              		.loc 1 124 0 is_stmt 0 discriminator 1
 605 006c AB42     		cmp	r3, r5
 606 006e F0D3     		bcc	.L36
 607              	.LBE9:
 130:pathfinding.c **** 
 131:pathfinding.c ****     }
 132:pathfinding.c **** 
 133:pathfinding.c ****     // In our implementation we should count the source block as having a distance of 1.
 134:pathfinding.c ****     vertices[source].distance = 1;
 608              		.loc 1 134 0 is_stmt 1
 609 0070 FB68     		ldr	r3, [r7, #12]
 610              	.LVL65:
 611 0072 7B60     		str	r3, [r7, #4]
 612 0074 03EB4303 		add	r3, r3, r3, lsl #1
 613 0078 08EB4303 		add	r3, r8, r3, lsl #1
 614 007c 0122     		movs	r2, #1
 615 007e 5A80     		strh	r2, [r3, #2]	@ movhi
 616 0080 C7F818B0 		str	fp, [r7, #24]
 135:pathfinding.c **** 
 136:pathfinding.c ****     // While we have yet to reach the destination, keep looping.
 137:pathfinding.c ****     while (queue->size != 0) {
 617              		.loc 1 137 0
 618 0084 9EE0     		b	.L37
 619              	.LVL66:
 620              	.L48:
 621              	.LBB10:
 138:pathfinding.c **** 
 139:pathfinding.c ****         // Get the vertex with the highest priority.
 140:pathfinding.c ****         struct PriorityVertex key = removeVertex(queue);
 622              		.loc 1 140 0
 623 0086 F869     		ldr	r0, [r7, #28]
 624 0088 FFF7FEFF 		bl	removeVertex
 625              	.LVL67:
 626 008c 7862     		str	r0, [r7, #36]
 141:pathfinding.c **** 
 142:pathfinding.c ****         // Set the visited status to true.
 143:pathfinding.c ****         vertices[key.value].visited = true;
 627              		.loc 1 143 0
 628 008e 06B2     		sxth	r6, r0
 629 0090 B346     		mov	fp, r6
 630 0092 06EB4603 		add	r3, r6, r6, lsl #1
 631 0096 08EB4303 		add	r3, r8, r3, lsl #1
 632 009a 0122     		movs	r2, #1
 633 009c 1A71     		strb	r2, [r3, #4]
 144:pathfinding.c **** 
 145:pathfinding.c ****         // If we have reached our target, then we can stop searching.
 146:pathfinding.c ****         if (key.value == target) {
 634              		.loc 1 146 0
 635 009e BB69     		ldr	r3, [r7, #24]
 636 00a0 1C46     		mov	r4, r3
 637 00a2 9E42     		cmp	r6, r3
 638 00a4 40F08B80 		bne	.L49
 639 00a8 9B46     		mov	fp, r3
ARM GAS  C:\Users\bbus692\AppData\Local\Temp\ccNfhypp.s 			page 15


 640              	.LVL68:
 641              	.LBB11:
 147:pathfinding.c **** 
 148:pathfinding.c ****             // printf("The target is %d blocks from the source.\n", vertices[target].distance );
 149:pathfinding.c **** 
 150:pathfinding.c ****             // Initialise an array to store the shortest path (with blanks).
 151:pathfinding.c ****             int16_t shortestPath[size];
 642              		.loc 1 151 0 discriminator 1
 643 00aa B968     		ldr	r1, [r7, #8]
 644 00ac 0B46     		mov	r3, r1
 645 00ae 9340     		lsls	r3, r3, r2
 646 00b0 0833     		adds	r3, r3, #8
 647 00b2 23F00703 		bic	r3, r3, #7
 648 00b6 ADEB030D 		sub	sp, sp, r3
 649 00ba 6D46     		mov	r5, sp
 650              	.LVL69:
 651              	.LBB12:
 152:pathfinding.c ****             for (uint16_t i = 0; i < size; i++) {
 652              		.loc 1 152 0 discriminator 1
 653 00bc 0023     		movs	r3, #0
 654 00be 05E0     		b	.L39
 655              	.LVL70:
 656              	.L40:
 153:pathfinding.c ****                 shortestPath[i] = -1;
 657              		.loc 1 153 0 discriminator 3
 658 00c0 4FF6FF72 		movw	r2, #65535
 659 00c4 25F81320 		strh	r2, [r5, r3, lsl #1]	@ movhi
 152:pathfinding.c ****             for (uint16_t i = 0; i < size; i++) {
 660              		.loc 1 152 0 discriminator 3
 661 00c8 0133     		adds	r3, r3, #1
 662              	.LVL71:
 663 00ca 9BB2     		uxth	r3, r3
 664              	.LVL72:
 665              	.L39:
 152:pathfinding.c ****             for (uint16_t i = 0; i < size; i++) {
 666              		.loc 1 152 0 is_stmt 0 discriminator 1
 667 00cc 8B42     		cmp	r3, r1
 668 00ce F7D3     		bcc	.L40
 669              	.LVL73:
 670              	.LBE12:
 154:pathfinding.c ****             }
 155:pathfinding.c **** 
 156:pathfinding.c ****             // Index and order are both required for successful formatting.
 157:pathfinding.c ****             uint16_t index = target;
 158:pathfinding.c ****             uint16_t order = vertices[target].distance;
 671              		.loc 1 158 0 is_stmt 1
 672 00d0 04EB4403 		add	r3, r4, r4, lsl #1
 673              	.LVL74:
 674 00d4 08EB4303 		add	r3, r8, r3, lsl #1
 675 00d8 5B88     		ldrh	r3, [r3, #2]
 676              	.LVL75:
 677 00da 7868     		ldr	r0, [r7, #4]
 159:pathfinding.c **** 
 160:pathfinding.c ****             while (vertices[index].pred != source) { 
 678              		.loc 1 160 0
 679 00dc 07E0     		b	.L41
 680              	.L42:
ARM GAS  C:\Users\bbus692\AppData\Local\Temp\ccNfhypp.s 			page 16


 161:pathfinding.c ****                 // Order is very important here, we need it to make sure that the order we visit ve
 162:pathfinding.c ****                 shortestPath[index] = order;
 681              		.loc 1 162 0
 682 00de 25F81B30 		strh	r3, [r5, fp, lsl #1]	@ movhi
 163:pathfinding.c ****                 index = vertices[index].pred;
 683              		.loc 1 163 0
 684 00e2 0BEB4B0B 		add	fp, fp, fp, lsl #1
 685              	.LVL76:
 686 00e6 38F81BB0 		ldrh	fp, [r8, fp, lsl #1]
 687              	.LVL77:
 164:pathfinding.c ****                 order--;
 688              		.loc 1 164 0
 689 00ea 013B     		subs	r3, r3, #1
 690              	.LVL78:
 691 00ec 9BB2     		uxth	r3, r3
 692              	.LVL79:
 693              	.L41:
 160:pathfinding.c ****                 // Order is very important here, we need it to make sure that the order we visit ve
 694              		.loc 1 160 0
 695 00ee 0BEB4B02 		add	r2, fp, fp, lsl #1
 696 00f2 38F91220 		ldrsh	r2, [r8, r2, lsl #1]
 697 00f6 9042     		cmp	r0, r2
 698 00f8 F1D1     		bne	.L42
 165:pathfinding.c ****             }
 166:pathfinding.c ****             
 167:pathfinding.c ****             // Add the last 2 vertices.
 168:pathfinding.c ****             shortestPath[index] = order;
 699              		.loc 1 168 0
 700 00fa 25F81B30 		strh	r3, [r5, fp, lsl #1]	@ movhi
 169:pathfinding.c ****             order--;
 701              		.loc 1 169 0
 702 00fe 013B     		subs	r3, r3, #1
 703              	.LVL80:
 170:pathfinding.c ****             shortestPath[source] = order;
 704              		.loc 1 170 0
 705 0100 FA68     		ldr	r2, [r7, #12]
 706 0102 25F81230 		strh	r3, [r5, r2, lsl #1]	@ movhi
 171:pathfinding.c **** 
 172:pathfinding.c ****             // Array to return. Need to allocate space for an additional int so we can store the si
 173:pathfinding.c ****             uint16_t *finalPath = malloc((vertices[target].distance + 1) * sizeof(uint16_t));
 707              		.loc 1 173 0
 708 0106 04EB4403 		add	r3, r4, r4, lsl #1
 709              	.LVL81:
 710 010a 08EB4303 		add	r3, r8, r3, lsl #1
 711 010e 5888     		ldrh	r0, [r3, #2]
 712 0110 0130     		adds	r0, r0, #1
 713 0112 4000     		lsls	r0, r0, #1
 714 0114 FFF7FEFF 		bl	malloc
 715              	.LVL82:
 716              	.LBB13:
 174:pathfinding.c ****             for (uint16_t i = 0; i < size; i++) {
 717              		.loc 1 174 0
 718 0118 0023     		movs	r3, #0
 719 011a B968     		ldr	r1, [r7, #8]
 720 011c 09E0     		b	.L43
 721              	.LVL83:
 722              	.L45:
ARM GAS  C:\Users\bbus692\AppData\Local\Temp\ccNfhypp.s 			page 17


 175:pathfinding.c ****                 if (shortestPath[i] != -1) {
 723              		.loc 1 175 0
 724 011e 35F91320 		ldrsh	r2, [r5, r3, lsl #1]
 725 0122 B2F1FF3F 		cmp	r2, #-1
 726 0126 02D0     		beq	.L44
 176:pathfinding.c ****                     order = shortestPath[i];
 727              		.loc 1 176 0
 728 0128 92B2     		uxth	r2, r2
 729              	.LVL84:
 177:pathfinding.c ****                     finalPath[order] = i;
 730              		.loc 1 177 0
 731 012a 20F81230 		strh	r3, [r0, r2, lsl #1]	@ movhi
 732              	.LVL85:
 733              	.L44:
 174:pathfinding.c ****                 if (shortestPath[i] != -1) {
 734              		.loc 1 174 0 discriminator 2
 735 012e 0133     		adds	r3, r3, #1
 736              	.LVL86:
 737 0130 9BB2     		uxth	r3, r3
 738              	.LVL87:
 739              	.L43:
 174:pathfinding.c ****                 if (shortestPath[i] != -1) {
 740              		.loc 1 174 0 is_stmt 0 discriminator 1
 741 0132 8B42     		cmp	r3, r1
 742 0134 F3D3     		bcc	.L45
 743              	.LBE13:
 178:pathfinding.c ****                 }
 179:pathfinding.c ****             }
 180:pathfinding.c **** 
 181:pathfinding.c ****             // Set the size at position 0.
 182:pathfinding.c ****             finalPath[0] = vertices[target].distance;
 744              		.loc 1 182 0 is_stmt 1
 745 0136 04EB4404 		add	r4, r4, r4, lsl #1
 746 013a 08EB4408 		add	r8, r8, r4, lsl #1
 747              	.LVL88:
 748 013e B8F80230 		ldrh	r3, [r8, #2]
 749              	.LVL89:
 750 0142 0380     		strh	r3, [r0]	@ movhi
 183:pathfinding.c **** 
 184:pathfinding.c ****             // Return the formatted shortest path.
 185:pathfinding.c ****             return finalPath;
 751              		.loc 1 185 0
 752 0144 44E0     		b	.L34
 753              	.LVL90:
 754              	.L47:
 755              	.LBE11:
 756              	.LBB14:
 757              	.LBB15:
 186:pathfinding.c **** 
 187:pathfinding.c ****         }
 188:pathfinding.c **** 
 189:pathfinding.c ****         // Search through all possible neighbours.
 190:pathfinding.c ****         for (uint8_t i = 0; i < 4; i++) {
 191:pathfinding.c ****             int16_t entry = adjlist[key.value][i];
 758              		.loc 1 191 0
 759 0146 0AEBC603 		add	r3, r10, r6, lsl #3
 760 014a 33F91450 		ldrsh	r5, [r3, r4, lsl #1]
ARM GAS  C:\Users\bbus692\AppData\Local\Temp\ccNfhypp.s 			page 18


 761              	.LVL91:
 192:pathfinding.c **** 
 193:pathfinding.c ****             // If entry is -1 it means there is no valid entry here (vacancy).
 194:pathfinding.c ****             if (entry != -1) {
 762              		.loc 1 194 0
 763 014e B5F1FF3F 		cmp	r5, #-1
 764 0152 31D0     		beq	.L46
 765              	.LBB16:
 195:pathfinding.c ****                 // If we have already visited this neighbour just continue.
 196:pathfinding.c ****                 if (vertices[entry].visited == true) { continue; }
 766              		.loc 1 196 0
 767 0154 05EB4503 		add	r3, r5, r5, lsl #1
 768 0158 08EB4303 		add	r3, r8, r3, lsl #1
 769 015c 1B79     		ldrb	r3, [r3, #4]	@ zero_extendqisi2
 770 015e 5BBB     		cbnz	r3, .L46
 197:pathfinding.c **** 
 198:pathfinding.c ****                 // Update the distances.
 199:pathfinding.c ****                 uint16_t newDistance = vertices[key.value].distance + 1;
 771              		.loc 1 199 0
 772 0160 0BEB4B03 		add	r3, fp, fp, lsl #1
 773 0164 08EB4303 		add	r3, r8, r3, lsl #1
 774 0168 B3F80290 		ldrh	r9, [r3, #2]
 775 016c 09F10109 		add	r9, r9, #1
 776 0170 1FFA89F9 		uxth	r9, r9
 777              	.LVL92:
 200:pathfinding.c ****                 if (newDistance < vertices[entry].distance) {
 778              		.loc 1 200 0
 779 0174 05EB4503 		add	r3, r5, r5, lsl #1
 780 0178 08EB4303 		add	r3, r8, r3, lsl #1
 781 017c 5B88     		ldrh	r3, [r3, #2]
 782 017e 9945     		cmp	r9, r3
 783 0180 1AD2     		bcs	.L46
 784              	.LBB17:
 201:pathfinding.c **** 
 202:pathfinding.c ****                     // Priority is the sum of the new distance plus the heuristic function result.
 203:pathfinding.c ****                     uint16_t priority = newDistance + heuristic(entry, target, xdim);
 785              		.loc 1 203 0
 786 0182 3A69     		ldr	r2, [r7, #16]
 787 0184 B969     		ldr	r1, [r7, #24]
 788 0186 2846     		mov	r0, r5
 789 0188 FFF7FEFF 		bl	heuristic
 790              	.LVL93:
 791 018c 4844     		add	r0, r0, r9
 792 018e 83B2     		uxth	r3, r0
 793 0190 7B61     		str	r3, [r7, #20]
 794              	.LVL94:
 204:pathfinding.c ****                     vertices[entry].distance = newDistance;
 795              		.loc 1 204 0
 796 0192 6B00     		lsls	r3, r5, #1
 797 0194 5A19     		adds	r2, r3, r5
 798 0196 08EB4202 		add	r2, r8, r2, lsl #1
 799 019a A2F80290 		strh	r9, [r2, #2]	@ movhi
 205:pathfinding.c **** 
 206:pathfinding.c ****                     // Set the predecessor (we want to take the newly discovered shortest path to e
 207:pathfinding.c ****                     vertices[entry].pred = key.value;
 800              		.loc 1 207 0
 801 019e 2B44     		add	r3, r3, r5
ARM GAS  C:\Users\bbus692\AppData\Local\Temp\ccNfhypp.s 			page 19


 802 01a0 28F81360 		strh	r6, [r8, r3, lsl #1]	@ movhi
 208:pathfinding.c **** 
 209:pathfinding.c ****                     if (!queueContains(queue, entry)) {
 803              		.loc 1 209 0
 804 01a4 2946     		mov	r1, r5
 805 01a6 F869     		ldr	r0, [r7, #28]
 806 01a8 FFF7FEFF 		bl	queueContains
 807              	.LVL95:
 808 01ac 20B9     		cbnz	r0, .L46
 210:pathfinding.c ****                         // If the neighbour is not in the priority queue already, add it.
 211:pathfinding.c ****                         push(queue, entry, priority);
 809              		.loc 1 211 0
 810 01ae 7A69     		ldr	r2, [r7, #20]
 811 01b0 2946     		mov	r1, r5
 812 01b2 F869     		ldr	r0, [r7, #28]
 813 01b4 FFF7FEFF 		bl	push
 814              	.LVL96:
 815              	.L46:
 816              	.LBE17:
 817              	.LBE16:
 818              	.LBE15:
 190:pathfinding.c ****             int16_t entry = adjlist[key.value][i];
 819              		.loc 1 190 0 discriminator 2
 820 01b8 0134     		adds	r4, r4, #1
 821              	.LVL97:
 822 01ba E4B2     		uxtb	r4, r4
 823              	.LVL98:
 824 01bc 00E0     		b	.L38
 825              	.LVL99:
 826              	.L49:
 827              	.LBE14:
 828 01be 0024     		movs	r4, #0
 829              	.L38:
 830              	.LVL100:
 831              	.LBB18:
 190:pathfinding.c ****             int16_t entry = adjlist[key.value][i];
 832              		.loc 1 190 0 is_stmt 0 discriminator 1
 833 01c0 032C     		cmp	r4, #3
 834 01c2 C0D9     		bls	.L47
 835              	.LVL101:
 836              	.L37:
 837              	.LBE18:
 838              	.LBE10:
 137:pathfinding.c **** 
 839              		.loc 1 137 0 is_stmt 1
 840 01c4 FB69     		ldr	r3, [r7, #28]
 841 01c6 B3F90430 		ldrsh	r3, [r3, #4]
 842 01ca 002B     		cmp	r3, #0
 843 01cc 7FF45BAF 		bne	.L48
 844              	.LVL102:
 845              	.L34:
 212:pathfinding.c ****                     }
 213:pathfinding.c **** 
 214:pathfinding.c ****                 }
 215:pathfinding.c ****             }
 216:pathfinding.c ****         }
 217:pathfinding.c **** 
ARM GAS  C:\Users\bbus692\AppData\Local\Temp\ccNfhypp.s 			page 20


 218:pathfinding.c ****     }
 219:pathfinding.c **** 
 220:pathfinding.c **** }
 846              		.loc 1 220 0
 847 01d0 2C37     		adds	r7, r7, #44
 848              		.cfi_def_cfa_offset 36
 849              	.LVL103:
 850 01d2 BD46     		mov	sp, r7
 851              		.cfi_def_cfa_register 13
 852              		@ sp needed
 853 01d4 BDE8F08F 		pop	{r4, r5, r6, r7, r8, r9, r10, fp, pc}
 854              		.cfi_endproc
 855              	.LFE72:
 856              		.size	ASTAR, .-ASTAR
 857              		.section	.text.decode,"ax",%progbits
 858              		.align	2
 859              		.global	decode
 860              		.thumb
 861              		.thumb_func
 862              		.type	decode, %function
 863              	decode:
 864              	.LFB73:
 221:pathfinding.c **** 
 222:pathfinding.c **** // Decode an array of vertices representing the shortest path into a list of directions.
 223:pathfinding.c **** int8_t *decode(uint16_t *finalPath, int16_t adjlist[][4], uint16_t xdim, uint16_t target) {
 865              		.loc 1 223 0
 866              		.cfi_startproc
 867              		@ args = 0, pretend = 0, frame = 0
 868              		@ frame_needed = 0, uses_anonymous_args = 0
 869              	.LVL104:
 870 0000 2DE9F041 		push	{r4, r5, r6, r7, r8, lr}
 871              		.cfi_def_cfa_offset 24
 872              		.cfi_offset 4, -24
 873              		.cfi_offset 5, -20
 874              		.cfi_offset 6, -16
 875              		.cfi_offset 7, -12
 876              		.cfi_offset 8, -8
 877              		.cfi_offset 14, -4
 878 0004 0446     		mov	r4, r0
 879 0006 0F46     		mov	r7, r1
 880 0008 1546     		mov	r5, r2
 881 000a 1E46     		mov	r6, r3
 224:pathfinding.c **** 
 225:pathfinding.c ****     // Get the length of the final path and store it in size.
 226:pathfinding.c ****     uint16_t size = finalPath[0];
 882              		.loc 1 226 0
 883 000c B0F80080 		ldrh	r8, [r0]
 884              	.LVL105:
 227:pathfinding.c ****     
 228:pathfinding.c ****     // Allocate space for our return array.
 229:pathfinding.c ****     int8_t *instructionSet = malloc(size * sizeof(int8_t));
 885              		.loc 1 229 0
 886 0010 4046     		mov	r0, r8
 887              	.LVL106:
 888 0012 FFF7FEFF 		bl	malloc
 889              	.LVL107:
 890              	.LBB19:
ARM GAS  C:\Users\bbus692\AppData\Local\Temp\ccNfhypp.s 			page 21


 230:pathfinding.c ****     for (uint16_t i = 0; i < size; i++) {
 891              		.loc 1 230 0
 892 0016 0023     		movs	r3, #0
 893 0018 03E0     		b	.L52
 894              	.LVL108:
 895              	.L53:
 231:pathfinding.c ****         instructionSet[i] = NULLDIR;
 896              		.loc 1 231 0 discriminator 3
 897 001a FF22     		movs	r2, #255
 898 001c C254     		strb	r2, [r0, r3]
 230:pathfinding.c ****     for (uint16_t i = 0; i < size; i++) {
 899              		.loc 1 230 0 discriminator 3
 900 001e 0133     		adds	r3, r3, #1
 901              	.LVL109:
 902 0020 9BB2     		uxth	r3, r3
 903              	.LVL110:
 904              	.L52:
 230:pathfinding.c ****     for (uint16_t i = 0; i < size; i++) {
 905              		.loc 1 230 0 is_stmt 0 discriminator 1
 906 0022 4345     		cmp	r3, r8
 907 0024 F9D3     		bcc	.L53
 908 0026 0421     		movs	r1, #4
 909 0028 4FF00008 		mov	r8, #0
 910              	.LVL111:
 911 002c 0123     		movs	r3, #1
 912              	.LVL112:
 913 002e 87E0     		b	.L54
 914              	.LVL113:
 915              	.L73:
 916              	.LBE19:
 232:pathfinding.c ****     }
 233:pathfinding.c **** 
 234:pathfinding.c ****     // Track the current and previous directions, and array indices.
 235:pathfinding.c ****     uint16_t i = 1, j = 0;
 236:pathfinding.c ****     uint8_t traversalDirection = UNINITIALISED;
 237:pathfinding.c ****     uint8_t prevDirection = UNINITIALISED;
 238:pathfinding.c **** 
 239:pathfinding.c ****     // While we have yet to reach the target vertex, walk through the shortest path, keeping track 
 240:pathfinding.c ****     while (finalPath[i] != target) {
 241:pathfinding.c ****         if (finalPath[i] - finalPath[i + 1] == xdim) {
 917              		.loc 1 241 0 is_stmt 1
 918 0030 5A1C     		adds	r2, r3, #1
 919 0032 34F81220 		ldrh	r2, [r4, r2, lsl #1]
 920 0036 C2EB0E0C 		rsb	ip, r2, lr
 921 003a AC45     		cmp	ip, r5
 922 003c 0AD0     		beq	.L74
 242:pathfinding.c ****             traversalDirection = NORTH;
 243:pathfinding.c ****         } else if (finalPath[i + 1] - finalPath[i] == xdim) {
 923              		.loc 1 243 0
 924 003e CEEB0202 		rsb	r2, lr, r2
 925 0042 9542     		cmp	r5, r2
 926 0044 08D0     		beq	.L75
 244:pathfinding.c ****             traversalDirection = SOUTH;
 245:pathfinding.c ****         } else if (finalPath[i + 1] - finalPath[i] == 1) {
 927              		.loc 1 245 0
 928 0046 012A     		cmp	r2, #1
 929 0048 08D0     		beq	.L76
ARM GAS  C:\Users\bbus692\AppData\Local\Temp\ccNfhypp.s 			page 22


 246:pathfinding.c ****             traversalDirection = EAST;
 247:pathfinding.c ****         } else if (finalPath[i] - finalPath[i + 1] == 1) {
 930              		.loc 1 247 0
 931 004a BCF1010F 		cmp	ip, #1
 932 004e 07D0     		beq	.L77
 933 0050 0A46     		mov	r2, r1
 934 0052 06E0     		b	.L55
 935              	.L74:
 242:pathfinding.c ****         } else if (finalPath[i + 1] - finalPath[i] == xdim) {
 936              		.loc 1 242 0
 937 0054 0022     		movs	r2, #0
 938 0056 04E0     		b	.L55
 939              	.L75:
 244:pathfinding.c ****             traversalDirection = SOUTH;
 940              		.loc 1 244 0
 941 0058 0222     		movs	r2, #2
 942 005a 02E0     		b	.L55
 943              	.L76:
 246:pathfinding.c ****             traversalDirection = EAST;
 944              		.loc 1 246 0
 945 005c 0122     		movs	r2, #1
 946 005e 00E0     		b	.L55
 947              	.L77:
 248:pathfinding.c ****             traversalDirection = WEST;
 948              		.loc 1 248 0
 949 0060 0322     		movs	r2, #3
 950              	.L55:
 951              	.LVL114:
 249:pathfinding.c ****         }
 250:pathfinding.c **** 
 251:pathfinding.c ****         /* If we have just started traversing, then we cannot have made a turn yet, so prevDirectio
 252:pathfinding.c ****            If the previous direction is different from our current one, then we have to had made a 
 253:pathfinding.c ****         if ((traversalDirection != prevDirection) && (prevDirection != UNINITIALISED)) {
 952              		.loc 1 253 0
 953 0062 8A42     		cmp	r2, r1
 954 0064 37D0     		beq	.L56
 955              		.loc 1 253 0 is_stmt 0 discriminator 1
 956 0066 0429     		cmp	r1, #4
 957 0068 35D0     		beq	.L56
 254:pathfinding.c **** 
 255:pathfinding.c ****             // We can determine whether we turned left or right based on our previous and current d
 256:pathfinding.c ****             switch (traversalDirection) 
 958              		.loc 1 256 0 is_stmt 1
 959 006a 032A     		cmp	r2, #3
 960 006c 2ED8     		bhi	.L57
 961 006e DFE802F0 		tbb	[pc, r2]
 962              	.L59:
 963 0072 02       		.byte	(.L58-.L59)/2
 964 0073 0E       		.byte	(.L60-.L59)/2
 965 0074 19       		.byte	(.L61-.L59)/2
 966 0075 24       		.byte	(.L62-.L59)/2
 967              		.p2align 1
 968              	.L58:
 257:pathfinding.c ****             {
 258:pathfinding.c ****                 case NORTH:
 259:pathfinding.c ****                     if (prevDirection == EAST) {
 969              		.loc 1 259 0
ARM GAS  C:\Users\bbus692\AppData\Local\Temp\ccNfhypp.s 			page 23


 970 0076 0129     		cmp	r1, #1
 971 0078 03D1     		bne	.L63
 260:pathfinding.c ****                         instructionSet[j] = L;
 972              		.loc 1 260 0
 973 007a 0021     		movs	r1, #0
 974              	.LVL115:
 975 007c 00F80810 		strb	r1, [r0, r8]
 976 0080 24E0     		b	.L57
 977              	.LVL116:
 978              	.L63:
 261:pathfinding.c ****                     } else if (prevDirection == WEST) {
 979              		.loc 1 261 0
 980 0082 0329     		cmp	r1, #3
 981 0084 22D1     		bne	.L57
 262:pathfinding.c ****                         instructionSet[j] = R;
 982              		.loc 1 262 0
 983 0086 0121     		movs	r1, #1
 984              	.LVL117:
 985 0088 00F80810 		strb	r1, [r0, r8]
 986 008c 1EE0     		b	.L57
 987              	.LVL118:
 988              	.L60:
 263:pathfinding.c ****                     }
 264:pathfinding.c ****                     break;
 265:pathfinding.c **** 
 266:pathfinding.c ****                 case EAST:
 267:pathfinding.c ****                     if (prevDirection == NORTH) {
 989              		.loc 1 267 0
 990 008e 19B9     		cbnz	r1, .L64
 268:pathfinding.c ****                         instructionSet[j] = R;
 991              		.loc 1 268 0
 992 0090 0121     		movs	r1, #1
 993              	.LVL119:
 994 0092 00F80810 		strb	r1, [r0, r8]
 995 0096 19E0     		b	.L57
 996              	.LVL120:
 997              	.L64:
 269:pathfinding.c ****                     } else if (prevDirection == SOUTH) {
 998              		.loc 1 269 0
 999 0098 0229     		cmp	r1, #2
 1000 009a 17D1     		bne	.L57
 270:pathfinding.c ****                         instructionSet[j] = L;
 1001              		.loc 1 270 0
 1002 009c 0021     		movs	r1, #0
 1003              	.LVL121:
 1004 009e 00F80810 		strb	r1, [r0, r8]
 1005 00a2 13E0     		b	.L57
 1006              	.LVL122:
 1007              	.L61:
 271:pathfinding.c ****                     }
 272:pathfinding.c ****                     break;
 273:pathfinding.c **** 
 274:pathfinding.c ****                 case SOUTH:
 275:pathfinding.c ****                     if (prevDirection == EAST) {
 1008              		.loc 1 275 0
 1009 00a4 0129     		cmp	r1, #1
 1010 00a6 02D1     		bne	.L65
ARM GAS  C:\Users\bbus692\AppData\Local\Temp\ccNfhypp.s 			page 24


 276:pathfinding.c ****                         instructionSet[j] = R;
 1011              		.loc 1 276 0
 1012 00a8 00F80810 		strb	r1, [r0, r8]
 1013 00ac 0EE0     		b	.L57
 1014              	.L65:
 277:pathfinding.c ****                     } else if (prevDirection == WEST) {
 1015              		.loc 1 277 0
 1016 00ae 0329     		cmp	r1, #3
 1017 00b0 0CD1     		bne	.L57
 278:pathfinding.c ****                         instructionSet[j] = L;
 1018              		.loc 1 278 0
 1019 00b2 0021     		movs	r1, #0
 1020              	.LVL123:
 1021 00b4 00F80810 		strb	r1, [r0, r8]
 1022 00b8 08E0     		b	.L57
 1023              	.LVL124:
 1024              	.L62:
 279:pathfinding.c ****                     }
 280:pathfinding.c ****                     break;
 281:pathfinding.c **** 
 282:pathfinding.c ****                 case WEST:
 283:pathfinding.c ****                     if (prevDirection == NORTH) {
 1025              		.loc 1 283 0
 1026 00ba 11B9     		cbnz	r1, .L66
 284:pathfinding.c ****                         instructionSet[j] = L;
 1027              		.loc 1 284 0
 1028 00bc 00F80810 		strb	r1, [r0, r8]
 1029 00c0 04E0     		b	.L57
 1030              	.L66:
 285:pathfinding.c ****                     } else if (prevDirection == SOUTH) {
 1031              		.loc 1 285 0
 1032 00c2 0229     		cmp	r1, #2
 1033 00c4 02D1     		bne	.L57
 286:pathfinding.c ****                         instructionSet[j] = R;
 1034              		.loc 1 286 0
 1035 00c6 0121     		movs	r1, #1
 1036              	.LVL125:
 1037 00c8 00F80810 		strb	r1, [r0, r8]
 1038              	.L57:
 287:pathfinding.c ****                     }
 288:pathfinding.c ****                     break;
 289:pathfinding.c **** 
 290:pathfinding.c ****                 default:
 291:pathfinding.c ****                     break;
 292:pathfinding.c ****             }
 293:pathfinding.c ****             // Increment the index so that we can store the next instruction (if applicable).
 294:pathfinding.c ****             j++;
 1039              		.loc 1 294 0
 1040 00cc 08F10108 		add	r8, r8, #1
 1041              	.LVL126:
 1042 00d0 1FFA88F8 		uxth	r8, r8
 1043              	.LVL127:
 1044 00d4 31E0     		b	.L67
 1045              	.LVL128:
 1046              	.L56:
 295:pathfinding.c **** 
 296:pathfinding.c ****         } else if ((traversalDirection == prevDirection) && (prevDirection != UNINITIALISED)) {
ARM GAS  C:\Users\bbus692\AppData\Local\Temp\ccNfhypp.s 			page 25


 1047              		.loc 1 296 0
 1048 00d6 8A42     		cmp	r2, r1
 1049 00d8 2FD1     		bne	.L67
 1050              		.loc 1 296 0 is_stmt 0 discriminator 1
 1051 00da 0429     		cmp	r1, #4
 1052 00dc 2DD0     		beq	.L67
 297:pathfinding.c **** 
 298:pathfinding.c ****             // If we are travelling the same direction as before along the shortest path, but there
 299:pathfinding.c ****             if (prevDirection == NORTH || prevDirection == SOUTH) {
 1053              		.loc 1 299 0 is_stmt 1
 1054 00de 09B1     		cbz	r1, .L68
 1055              		.loc 1 299 0 is_stmt 0 discriminator 1
 1056 00e0 0229     		cmp	r1, #2
 1057 00e2 13D1     		bne	.L69
 1058              	.L68:
 300:pathfinding.c ****                 if (adjlist[finalPath[i]][2] != -1 || adjlist[finalPath[i]][3] != -1) {
 1059              		.loc 1 300 0 is_stmt 1
 1060 00e4 07EBCE0E 		add	lr, r7, lr, lsl #3
 1061 00e8 BEF90410 		ldrsh	r1, [lr, #4]
 1062              	.LVL129:
 1063 00ec B1F1FF3F 		cmp	r1, #-1
 1064 00f0 04D1     		bne	.L70
 1065              		.loc 1 300 0 is_stmt 0 discriminator 1
 1066 00f2 BEF90610 		ldrsh	r1, [lr, #6]
 1067 00f6 B1F1FF3F 		cmp	r1, #-1
 1068 00fa 1ED0     		beq	.L67
 1069              	.L70:
 301:pathfinding.c ****                     instructionSet[j] = J;
 1070              		.loc 1 301 0 is_stmt 1
 1071 00fc 0221     		movs	r1, #2
 1072 00fe 00F80810 		strb	r1, [r0, r8]
 302:pathfinding.c ****                     j++;
 1073              		.loc 1 302 0
 1074 0102 08F10108 		add	r8, r8, #1
 1075              	.LVL130:
 1076 0106 1FFA88F8 		uxth	r8, r8
 1077              	.LVL131:
 1078 010a 16E0     		b	.L67
 1079              	.LVL132:
 1080              	.L69:
 303:pathfinding.c ****                 }
 304:pathfinding.c ****             } else if (prevDirection == EAST || prevDirection == WEST) {
 1081              		.loc 1 304 0
 1082 010c 0129     		cmp	r1, #1
 1083 010e 01D0     		beq	.L71
 1084              		.loc 1 304 0 is_stmt 0 discriminator 1
 1085 0110 0329     		cmp	r1, #3
 1086 0112 12D1     		bne	.L67
 1087              	.L71:
 305:pathfinding.c ****                 if (adjlist[finalPath[i]][0] != -1 || adjlist[finalPath[i]][1] != -1) {
 1088              		.loc 1 305 0 is_stmt 1
 1089 0114 07EBCE0C 		add	ip, r7, lr, lsl #3
 1090 0118 37F93E10 		ldrsh	r1, [r7, lr, lsl #3]
 1091              	.LVL133:
 1092 011c B1F1FF3F 		cmp	r1, #-1
 1093 0120 04D1     		bne	.L72
 1094              		.loc 1 305 0 is_stmt 0 discriminator 1
ARM GAS  C:\Users\bbus692\AppData\Local\Temp\ccNfhypp.s 			page 26


 1095 0122 BCF90210 		ldrsh	r1, [ip, #2]
 1096 0126 B1F1FF3F 		cmp	r1, #-1
 1097 012a 06D0     		beq	.L67
 1098              	.L72:
 306:pathfinding.c ****                     instructionSet[j] = J;
 1099              		.loc 1 306 0 is_stmt 1
 1100 012c 0221     		movs	r1, #2
 1101 012e 00F80810 		strb	r1, [r0, r8]
 307:pathfinding.c ****                     j++;
 1102              		.loc 1 307 0
 1103 0132 08F10108 		add	r8, r8, #1
 1104              	.LVL134:
 1105 0136 1FFA88F8 		uxth	r8, r8
 1106              	.LVL135:
 1107              	.L67:
 308:pathfinding.c ****                 }
 309:pathfinding.c ****             }
 310:pathfinding.c **** 
 311:pathfinding.c ****         }
 312:pathfinding.c ****         // Set the previous direction to our current one, and increment our position in the shortes
 313:pathfinding.c ****         prevDirection = traversalDirection;
 314:pathfinding.c ****         i++;
 1108              		.loc 1 314 0
 1109 013a 0133     		adds	r3, r3, #1
 1110              	.LVL136:
 1111 013c 9BB2     		uxth	r3, r3
 1112              	.LVL137:
 1113 013e 1146     		mov	r1, r2
 1114              	.LVL138:
 1115              	.L54:
 240:pathfinding.c ****         if (finalPath[i] - finalPath[i + 1] == xdim) {
 1116              		.loc 1 240 0
 1117 0140 34F813E0 		ldrh	lr, [r4, r3, lsl #1]
 1118 0144 B645     		cmp	lr, r6
 1119 0146 7FF473AF 		bne	.L73
 315:pathfinding.c **** 
 316:pathfinding.c ****     }
 317:pathfinding.c ****     // Return the set of instructions produced.
 318:pathfinding.c ****     return instructionSet;
 319:pathfinding.c **** 
 320:pathfinding.c **** }
 1120              		.loc 1 320 0
 1121 014a BDE8F081 		pop	{r4, r5, r6, r7, r8, pc}
 1122              		.cfi_endproc
 1123              	.LFE73:
 1124              		.size	decode, .-decode
 1125              		.comm	Vertex,6,4
 1126              		.comm	Queue,16,4
 1127              		.comm	PriorityVertex,4,4
 1128 014e 00BF     		.section	.rodata
 1129              		.align	2
 1130              		.set	.LANCHOR0,. + 0
 1131              	.LC0:
 1132 0000 FFFF     		.short	-1
 1133 0002 FFFF     		.short	-1
 1134              		.text
 1135              	.Letext0:
ARM GAS  C:\Users\bbus692\AppData\Local\Temp\ccNfhypp.s 			page 27


 1136              		.file 2 "c:\\program files (x86)\\cypress\\psoc creator\\4.2\\psoc creator\\import\\gnu\\arm\\5.4.
 1137              		.file 3 "c:\\program files (x86)\\cypress\\psoc creator\\4.2\\psoc creator\\import\\gnu\\arm\\5.4.
 1138              		.file 4 "pathfinding.h"
 1139              		.file 5 "Generated_Source\\PSoC5/core_cm3.h"
 1140              		.file 6 "c:\\program files (x86)\\cypress\\psoc creator\\4.2\\psoc creator\\import\\gnu\\arm\\5.4.