ARM GAS  C:\Users\bbus692\AppData\Local\Temp\ccZi6SoQ.s 			page 1


   1              		.syntax unified
   2              		.cpu cortex-m3
   3              		.fpu softvfp
   4              		.eabi_attribute 20, 1
   5              		.eabi_attribute 21, 1
   6              		.eabi_attribute 23, 3
   7              		.eabi_attribute 24, 1
   8              		.eabi_attribute 25, 1
   9              		.eabi_attribute 26, 1
  10              		.eabi_attribute 30, 1
  11              		.eabi_attribute 34, 1
  12              		.eabi_attribute 18, 4
  13              		.thumb
  14              		.syntax unified
  15              		.file	"main.c"
  16              		.text
  17              	.Ltext0:
  18              		.cfi_sections	.debug_frame
  19              		.section	.text.isr_eoc_1,"ax",%progbits
  20              		.align	2
  21              		.global	isr_eoc_1
  22              		.thumb
  23              		.thumb_func
  24              		.type	isr_eoc_1, %function
  25              	isr_eoc_1:
  26              	.LFB63:
  27              		.file 1 "main.c"
   1:main.c        **** #include "project.h"
   2:main.c        **** 
   3:main.c        **** CY_ISR_PROTO(isr_eoc_1);
   4:main.c        **** //CY_ISR_PROTO(isr_eoc_2);
   5:main.c        **** 
   6:main.c        **** uint8 flag = 0;
   7:main.c        **** 
   8:main.c        **** CY_ISR(isr_eoc_1){
  28              		.loc 1 8 0
  29              		.cfi_startproc
  30              		@ args = 0, pretend = 0, frame = 0
  31              		@ frame_needed = 0, uses_anonymous_args = 0
  32 0000 08B5     		push	{r3, lr}
  33              		.cfi_def_cfa_offset 8
  34              		.cfi_offset 3, -8
  35              		.cfi_offset 14, -4
   9:main.c        ****     flag = 1;
  36              		.loc 1 9 0
  37 0002 0120     		movs	r0, #1
  38 0004 024B     		ldr	r3, .L3
  39 0006 1870     		strb	r0, [r3]
  10:main.c        ****     LED_3_Write(1);
  40              		.loc 1 10 0
  41 0008 FFF7FEFF 		bl	LED_3_Write
  42              	.LVL0:
  43 000c 08BD     		pop	{r3, pc}
  44              	.L4:
  45 000e 00BF     		.align	2
  46              	.L3:
  47 0010 00000000 		.word	.LANCHOR0
ARM GAS  C:\Users\bbus692\AppData\Local\Temp\ccZi6SoQ.s 			page 2


  48              		.cfi_endproc
  49              	.LFE63:
  50              		.size	isr_eoc_1, .-isr_eoc_1
  51              		.global	__aeabi_fcmpge
  52              		.section	.text.main,"ax",%progbits
  53              		.align	2
  54              		.global	main
  55              		.thumb
  56              		.thumb_func
  57              		.type	main, %function
  58              	main:
  59              	.LFB64:
  11:main.c        **** }
  12:main.c        **** 
  13:main.c        **** int main(void){
  60              		.loc 1 13 0
  61              		.cfi_startproc
  62              		@ args = 0, pretend = 0, frame = 0
  63              		@ frame_needed = 0, uses_anonymous_args = 0
  64 0000 10B5     		push	{r4, lr}
  65              		.cfi_def_cfa_offset 8
  66              		.cfi_offset 4, -8
  67              		.cfi_offset 14, -4
  14:main.c        ****     CyGlobalIntEnable;
  68              		.loc 1 14 0
  69              		.syntax unified
  70              	@ 14 "main.c" 1
  71 0002 62B6     		CPSIE   i
  72              	@ 0 "" 2
  15:main.c        ****     isr_eoc_1_StartEx(isr_eoc_1);
  73              		.loc 1 15 0
  74              		.thumb
  75              		.syntax unified
  76 0004 1848     		ldr	r0, .L19
  77 0006 FFF7FEFF 		bl	isr_eoc_1_StartEx
  78              	.LVL1:
  16:main.c        ****     isr_eoc_1_Enable();
  79              		.loc 1 16 0
  80 000a FFF7FEFF 		bl	isr_eoc_1_Enable
  81              	.LVL2:
  17:main.c        ****     
  18:main.c        ****     
  19:main.c        ****     
  20:main.c        ****     ADC_SAR_1_Start();
  82              		.loc 1 20 0
  83 000e FFF7FEFF 		bl	ADC_SAR_1_Start
  84              	.LVL3:
  21:main.c        ****     
  22:main.c        ****     ADC_SAR_1_StartConvert();
  85              		.loc 1 22 0
  86 0012 FFF7FEFF 		bl	ADC_SAR_1_StartConvert
  87              	.LVL4:
  88              	.L7:
  23:main.c        ****     
  24:main.c        ****     for(;;){
  25:main.c        ****         if (flag == 1){
  89              		.loc 1 25 0
ARM GAS  C:\Users\bbus692\AppData\Local\Temp\ccZi6SoQ.s 			page 3


  90 0016 154B     		ldr	r3, .L19+4
  91 0018 1B78     		ldrb	r3, [r3]	@ zero_extendqisi2
  92 001a 012B     		cmp	r3, #1
  93 001c FBD1     		bne	.L7
  94              	.LBB2:
  26:main.c        ****             flag = 0;
  95              		.loc 1 26 0
  96 001e 0020     		movs	r0, #0
  97 0020 124B     		ldr	r3, .L19+4
  98 0022 1870     		strb	r0, [r3]
  27:main.c        ****             
  28:main.c        ****             ADC_SAR_1_IsEndConversion(ADC_SAR_1_WAIT_FOR_RESULT);
  99              		.loc 1 28 0
 100 0024 FFF7FEFF 		bl	ADC_SAR_1_IsEndConversion
 101              	.LVL5:
  29:main.c        ****             
  30:main.c        ****             uint16 number = ADC_SAR_1_GetResult16();
 102              		.loc 1 30 0
 103 0028 FFF7FEFF 		bl	ADC_SAR_1_GetResult16
 104              	.LVL6:
  31:main.c        ****             float voltsConvert = ADC_SAR_1_CountsTo_Volts(number);
 105              		.loc 1 31 0
 106 002c FFF7FEFF 		bl	ADC_SAR_1_CountsTo_Volts
 107              	.LVL7:
 108 0030 0446     		mov	r4, r0
 109              	.LVL8:
  32:main.c        ****             
  33:main.c        ****             if (voltsConvert >= 1){
 110              		.loc 1 33 0
 111 0032 4FF07E51 		mov	r1, #1065353216
 112 0036 FFF7FEFF 		bl	__aeabi_fcmpge
 113              	.LVL9:
 114 003a 18B1     		cbz	r0, .L16
  34:main.c        ****                 LED_1_Write(1);
 115              		.loc 1 34 0
 116 003c 0120     		movs	r0, #1
 117 003e FFF7FEFF 		bl	LED_1_Write
 118              	.LVL10:
 119 0042 02E0     		b	.L10
 120              	.L16:
  35:main.c        ****             } else {
  36:main.c        ****                 LED_1_Write(0);
 121              		.loc 1 36 0
 122 0044 0020     		movs	r0, #0
 123 0046 FFF7FEFF 		bl	LED_1_Write
 124              	.LVL11:
 125              	.L10:
  37:main.c        ****             }
  38:main.c        ****             
  39:main.c        ****             if (voltsConvert >= 2) {
 126              		.loc 1 39 0
 127 004a 4FF08041 		mov	r1, #1073741824
 128 004e 2046     		mov	r0, r4
 129 0050 FFF7FEFF 		bl	__aeabi_fcmpge
 130              	.LVL12:
 131 0054 18B1     		cbz	r0, .L17
  40:main.c        ****                 LED_2_Write(1);
ARM GAS  C:\Users\bbus692\AppData\Local\Temp\ccZi6SoQ.s 			page 4


 132              		.loc 1 40 0
 133 0056 0120     		movs	r0, #1
 134 0058 FFF7FEFF 		bl	LED_2_Write
 135              	.LVL13:
 136 005c DBE7     		b	.L7
 137              	.L17:
  41:main.c        ****             } else {
  42:main.c        ****                 LED_2_Write(0);
 138              		.loc 1 42 0
 139 005e 0020     		movs	r0, #0
 140 0060 FFF7FEFF 		bl	LED_2_Write
 141              	.LVL14:
 142 0064 D7E7     		b	.L7
 143              	.L20:
 144 0066 00BF     		.align	2
 145              	.L19:
 146 0068 00000000 		.word	isr_eoc_1
 147 006c 00000000 		.word	.LANCHOR0
 148              	.LBE2:
 149              		.cfi_endproc
 150              	.LFE64:
 151              		.size	main, .-main
 152              		.global	flag
 153              		.bss
 154              		.set	.LANCHOR0,. + 0
 155              		.type	flag, %object
 156              		.size	flag, 1
 157              	flag:
 158 0000 00       		.space	1
 159              		.text
 160              	.Letext0:
 161              		.file 2 "c:\\program files (x86)\\cypress\\psoc creator\\4.2\\psoc creator\\import\\gnu\\arm\\5.4.
 162              		.file 3 "c:\\program files (x86)\\cypress\\psoc creator\\4.2\\psoc creator\\import\\gnu\\arm\\5.4.
 163              		.file 4 "Generated_Source\\PSoC5/cytypes.h"
 164              		.file 5 "Generated_Source\\PSoC5/core_cm3.h"
 165              		.file 6 "Generated_Source\\PSoC5/LED_3.h"
 166              		.file 7 "Generated_Source\\PSoC5/ADC_SAR_1.h"
 167              		.file 8 "Generated_Source\\PSoC5/LED_1.h"
 168              		.file 9 "Generated_Source\\PSoC5/LED_2.h"
 169              		.file 10 "Generated_Source\\PSoC5/isr_eoc_1.h"